Component: ARM Compiler 5.05 update 1 (build 106) Tool: armlink [4d0efa]

==============================================================================

Section Cross References

    main.o(.text) refers to os_core.o(.text) for OSStatInit
    main.o(.text) refers to os_cpu_a.o(.text) for OS_CPU_SR_Save
    main.o(.text) refers to os_q.o(.text) for OSQCreate
    main.o(.text) refers to lwip_comm.o(.text) for lwip_comm_dhcp_creat
    main.o(.text) refers to malloc.o(.text) for mymalloc
    main.o(.text) refers to os_task.o(.text) for OSTaskCreate
    main.o(.text) refers to delay.o(.text) for delay_init
    main.o(.text) refers to misc.o(.text) for NVIC_PriorityGroupConfig
    main.o(.text) refers to usart.o(.text) for uart_init
    main.o(.text) refers to led.o(.text) for LED_Init
    main.o(.text) refers to lcd.o(.text) for LCD_Init
    main.o(.text) refers to beep.o(.text) for BEEP_Init
    main.o(.text) refers to sram.o(.text) for FSMC_SRAM_Init
    main.o(.text) refers to timer.o(.text) for TIM3_Int_Init
    main.o(.text) refers to pwm.o(.text) for TIM14_PWM_Init
    main.o(.text) refers to lsens.o(.text) for Lsens_Init
    main.o(.text) refers to w25qxx.o(.text) for W25QXX_Init
    main.o(.text) refers to exfuns.o(.text) for exfuns_init
    main.o(.text) refers to ff.o(.text) for f_mount
    main.o(.text) refers to dht11.o(.text) for DHT11_Init
    main.o(.text) refers to text.o(.text) for Show_Str
    main.o(.text) refers to camera.o(.text) for camera_Init
    main.o(.text) refers to ihome_function.o(.bss) for dht11_q
    main.o(.text) refers to ihome_function.o(.data) for dht11_event
    main.o(.text) refers to tcp_client.o(.bss) for tcp_send_q
    main.o(.text) refers to tcp_client.o(.data) for tcp_send_event
    main.o(.text) refers to ihome_function.o(.text) for led_task
    main.o(.text) refers to usmart_config.o(.data) for usmart_dev
    main.o(.text) refers to lcd.o(.data) for POINT_COLOR
    main.o(.text) refers to exfuns.o(.bss) for fs
    main.o(.text) refers to main.o(.data) for sd_ok
    main.o(.text) refers to main.o(.bss) for START_TASK_STK
    system_stm32f4xx.o(.text) refers to system_stm32f4xx.o(.data) for SystemCoreClock
    ihome_function.o(.text) refers to _printf_percent.o(.ARM.Collect$$_printf_percent$$00000000) for _printf_percent
    ihome_function.o(.text) refers to _printf_d.o(.ARM.Collect$$_printf_percent$$00000009) for _printf_d
    ihome_function.o(.text) refers to _printf_s.o(.ARM.Collect$$_printf_percent$$00000014) for _printf_s
    ihome_function.o(.text) refers to _printf_dec.o(.text) for _printf_int_dec
    ihome_function.o(.text) refers to _printf_str.o(.text) for _printf_str
    ihome_function.o(.text) refers to _printf_c.o(.ARM.Collect$$_printf_percent$$00000013) for _printf_c
    ihome_function.o(.text) refers to _printf_x.o(.ARM.Collect$$_printf_percent$$0000000C) for _printf_x
    ihome_function.o(.text) refers to _printf_hex_int.o(.text) for _printf_longlong_hex
    ihome_function.o(.text) refers to noretval__2printf.o(.text) for __2printf
    ihome_function.o(.text) refers to dcmi.o(.text) for My_DCMI_Init
    ihome_function.o(.text) refers to camera.o(.text) for sw_ov2640_mode
    ihome_function.o(.text) refers to ov2640.o(.text) for OV2640_JPEG_Mode
    ihome_function.o(.text) refers to os_time.o(.text) for OSTimeDlyHMSM
    ihome_function.o(.text) refers to os_q.o(.text) for OSQPend
    ihome_function.o(.text) refers to strcmpv7m.o(.text) for strcmp
    ihome_function.o(.text) refers to malloc.o(.text) for mymalloc
    ihome_function.o(.text) refers to noretval__2sprintf.o(.text) for __2sprintf
    ihome_function.o(.text) refers to strlen.o(.text) for strlen
    ihome_function.o(.text) refers to api_lib.o(.text) for netconn_write_partly
    ihome_function.o(.text) refers to rt_memcpy_v6.o(.text) for __aeabi_memcpy
    ihome_function.o(.text) refers to lsens.o(.text) for Lsens_Get_Val
    ihome_function.o(.text) refers to stm32f4xx_tim.o(.text) for TIM_SetCompare1
    ihome_function.o(.text) refers to camera.o(.data) for ov2640_mode
    ihome_function.o(.text) refers to dcmi.o(.data) for dcmi_rx_callback
    ihome_function.o(.text) refers to ihome_function.o(.data) for camera_start
    ihome_function.o(.text) refers to main.o(.constdata) for slave
    ihome_function.o(.text) refers to tcp_server.o(.data) for serverconn
    ihome_function.o(.text) refers to tcp_client.o(.data) for tcp_send_event
    ihome_function.o(.text) refers to dht11.o(.text) for DHT11_Read_Data
    camera.o(.text) refers to _printf_pad.o(.text) for _printf_pre_padding
    camera.o(.text) refers to _printf_percent.o(.ARM.Collect$$_printf_percent$$00000000) for _printf_percent
    camera.o(.text) refers to _printf_d.o(.ARM.Collect$$_printf_percent$$00000009) for _printf_d
    camera.o(.text) refers to _printf_dec.o(.text) for _printf_int_dec
    camera.o(.text) refers to _printf_x.o(.ARM.Collect$$_printf_percent$$0000000C) for _printf_x
    camera.o(.text) refers to _printf_hex_int.o(.text) for _printf_longlong_hex
    camera.o(.text) refers to malloc.o(.text) for mymalloc
    camera.o(.text) refers to lcd.o(.text) for LCD_ShowString
    camera.o(.text) refers to delay.o(.text) for delay_ms
    camera.o(.text) refers to ov2640.o(.text) for OV2640_Init
    camera.o(.text) refers to stm32f4xx_dma.o(.text) for DMA_Cmd
    camera.o(.text) refers to stm32f4xx_gpio.o(.text) for GPIO_PinAFConfig
    camera.o(.text) refers to noretval__2sprintf.o(.text) for __2sprintf
    camera.o(.text) refers to ff.o(.text) for f_open
    camera.o(.text) refers to dcmi.o(.text) for DCMI_DMA_Init
    camera.o(.text) refers to noretval__2printf.o(.text) for __2printf
    camera.o(.text) refers to camera.o(.data) for jpeg_buf0
    camera.o(.text) refers to lcd.o(.data) for POINT_COLOR
    camera.o(.text) refers to exfuns.o(.data) for ftemp
    camera.o(.text) refers to dcmi.o(.data) for dcmi_rx_callback
    key.o(.text) refers to stm32f4xx_rcc.o(.text) for RCC_AHB1PeriphClockCmd
    key.o(.text) refers to stm32f4xx_gpio.o(.text) for GPIO_Init
    key.o(.text) refers to delay.o(.text) for delay_ms
    key.o(.text) refers to key.o(.data) for key_up
    led.o(.text) refers to stm32f4xx_rcc.o(.text) for RCC_AHB1PeriphClockCmd
    led.o(.text) refers to stm32f4xx_gpio.o(.text) for GPIO_Init
    timer.o(.text) refers to stm32f4xx_rcc.o(.text) for RCC_APB1PeriphClockCmd
    timer.o(.text) refers to stm32f4xx_tim.o(.text) for TIM_TimeBaseInit
    timer.o(.text) refers to misc.o(.text) for NVIC_Init
    timer.o(.text) refers to stm32f4xx_gpio.o(.text) for GPIO_Init
    timer.o(.text) refers to timer.o(.bss) for TIM5_ICInitStructure
    timer.o(.text) refers to timer.o(.data) for TIM5CH1_CAPTURE_STA
    lcd.o(.text) refers to _printf_percent.o(.ARM.Collect$$_printf_percent$$00000000) for _printf_percent
    lcd.o(.text) refers to _printf_x.o(.ARM.Collect$$_printf_percent$$0000000C) for _printf_x
    lcd.o(.text) refers to _printf_hex_int.o(.text) for _printf_longlong_hex
    lcd.o(.text) refers to delay.o(.text) for delay_us
    lcd.o(.text) refers to lcd.o(.bss) for lcddev
    lcd.o(.text) refers to lcd.o(.data) for POINT_COLOR
    lcd.o(.text) refers to dflt_clz.o(x$fpl$dfltu) for __aeabi_ui2d
    lcd.o(.text) refers to dmul.o(x$fpl$dmul) for __aeabi_dmul
    lcd.o(.text) refers to dfixu.o(x$fpl$dfixu) for __aeabi_d2uiz
    lcd.o(.text) refers to stm32f4xx_rcc.o(.text) for RCC_AHB1PeriphClockCmd
    lcd.o(.text) refers to stm32f4xx_gpio.o(.text) for GPIO_Init
    lcd.o(.text) refers to stm32f4xx_fsmc.o(.text) for FSMC_NORSRAMInit
    lcd.o(.text) refers to noretval__2printf.o(.text) for __2printf
    lcd.o(.text) refers to lcd.o(.constdata) for asc2_1206
    lan8720.o(.text) refers to stm32f4xx_rcc.o(.text) for RCC_AHB1PeriphClockCmd
    lan8720.o(.text) refers to stm32f4x7_eth.o(.text) for ETH_DeInit
    lan8720.o(.text) refers to misc.o(.text) for NVIC_Init
    lan8720.o(.text) refers to stm32f4xx_syscfg.o(.text) for SYSCFG_ETH_MediaInterfaceConfig
    lan8720.o(.text) refers to stm32f4xx_gpio.o(.text) for GPIO_Init
    lan8720.o(.text) refers to delay.o(.text) for delay_ms
    lan8720.o(.text) refers to lwip_comm.o(.text) for lwip_pkt_handle
    lan8720.o(.text) refers to malloc.o(.text) for myfree
    lan8720.o(.text) refers to stm32f4x7_eth.o(.data) for DMARxDescToGet
    lan8720.o(.text) refers to lan8720.o(.data) for DMARxDscrTab
    sram.o(.text) refers to stm32f4xx_rcc.o(.text) for RCC_AHB1PeriphClockCmd
    sram.o(.text) refers to stm32f4xx_gpio.o(.text) for GPIO_Init
    sram.o(.text) refers to stm32f4xx_fsmc.o(.text) for FSMC_NORSRAMInit
    sram.o(.text) refers to lcd.o(.text) for LCD_ShowString
    dht11.o(.text) refers to delay.o(.text) for delay_ms
    dht11.o(.text) refers to stm32f4xx_rcc.o(.text) for RCC_AHB1PeriphClockCmd
    dht11.o(.text) refers to stm32f4xx_gpio.o(.text) for GPIO_Init
    lsens.o(.text) refers to stm32f4xx_rcc.o(.text) for RCC_AHB1PeriphClockCmd
    lsens.o(.text) refers to stm32f4xx_gpio.o(.text) for GPIO_Init
    lsens.o(.text) refers to adc3.o(.text) for Adc3_Init
    lsens.o(.text) refers to delay.o(.text) for delay_ms
    adc3.o(.text) refers to stm32f4xx_rcc.o(.text) for RCC_APB2PeriphClockCmd
    adc3.o(.text) refers to stm32f4xx_adc.o(.text) for ADC_CommonInit
    pwm.o(.text) refers to stm32f4xx_rcc.o(.text) for RCC_APB1PeriphClockCmd
    pwm.o(.text) refers to stm32f4xx_gpio.o(.text) for GPIO_PinAFConfig
    pwm.o(.text) refers to stm32f4xx_tim.o(.text) for TIM_TimeBaseInit
    beep.o(.text) refers to stm32f4xx_rcc.o(.text) for RCC_AHB1PeriphClockCmd
    beep.o(.text) refers to stm32f4xx_gpio.o(.text) for GPIO_Init
    dcmi.o(.text) refers to stm32f4xx_dcmi.o(.text) for DCMI_GetITStatus
    dcmi.o(.text) refers to camera.o(.text) for jpeg_data_process
    dcmi.o(.text) refers to stm32f4xx_rcc.o(.text) for RCC_AHB1PeriphClockCmd
    dcmi.o(.text) refers to stm32f4xx_dma.o(.text) for DMA_DeInit
    dcmi.o(.text) refers to misc.o(.text) for NVIC_Init
    dcmi.o(.text) refers to stm32f4xx_gpio.o(.text) for GPIO_Init
    dcmi.o(.text) refers to lcd.o(.text) for LCD_SetCursor
    dcmi.o(.text) refers to ov2640.o(.text) for OV2640_OutSize_Set
    dcmi.o(.text) refers to dcmi.o(.data) for ov_frame
    dcmi.o(.text) refers to dcmi.o(.bss) for DCMI_InitStructure
    ov2640.o(.text) refers to _printf_percent.o(.ARM.Collect$$_printf_percent$$00000000) for _printf_percent
    ov2640.o(.text) refers to _printf_d.o(.ARM.Collect$$_printf_percent$$00000009) for _printf_d
    ov2640.o(.text) refers to _printf_dec.o(.text) for _printf_int_dec
    ov2640.o(.text) refers to stm32f4xx_rcc.o(.text) for RCC_AHB1PeriphClockCmd
    ov2640.o(.text) refers to stm32f4xx_gpio.o(.text) for GPIO_Init
    ov2640.o(.text) refers to delay.o(.text) for delay_ms
    ov2640.o(.text) refers to sccb.o(.text) for SCCB_Init
    ov2640.o(.text) refers to noretval__2printf.o(.text) for __2printf
    ov2640.o(.text) refers to ov2640.o(.constdata) for ov2640_sxga_init_reg_tbl
    sccb.o(.text) refers to stm32f4xx_rcc.o(.text) for RCC_AHB1PeriphClockCmd
    sccb.o(.text) refers to stm32f4xx_gpio.o(.text) for GPIO_Init
    sccb.o(.text) refers to delay.o(.text) for delay_us
    w25qxx.o(.text) refers to _printf_percent.o(.ARM.Collect$$_printf_percent$$00000000) for _printf_percent
    w25qxx.o(.text) refers to _printf_x.o(.ARM.Collect$$_printf_percent$$0000000C) for _printf_x
    w25qxx.o(.text) refers to _printf_hex_int.o(.text) for _printf_longlong_hex
    w25qxx.o(.text) refers to spi.o(.text) for SPI1_ReadWriteByte
    w25qxx.o(.text) refers to stm32f4xx_rcc.o(.text) for RCC_AHB1PeriphClockCmd
    w25qxx.o(.text) refers to stm32f4xx_gpio.o(.text) for GPIO_Init
    w25qxx.o(.text) refers to noretval__2printf.o(.text) for __2printf
    w25qxx.o(.text) refers to delay.o(.text) for delay_us
    w25qxx.o(.text) refers to w25qxx.o(.data) for W25QXX_TYPE
    w25qxx.o(.text) refers to w25qxx.o(.bss) for W25QXX_BUFFER
    sdio_sdcard.o(.text) refers to stm32f4xx_sdio.o(.text) for SDIO_GetFlagStatus
    sdio_sdcard.o(.text) refers to sdio_sdcard.o(.data) for DeviceMode
    sdio_sdcard.o(.text) refers to sdio_sdcard.o(.bss) for SDIO_CmdInitStructure
    sdio_sdcard.o(.text) refers to stm32f4xx_rcc.o(.text) for RCC_AHB1PeriphClockCmd
    sdio_sdcard.o(.text) refers to stm32f4xx_gpio.o(.text) for GPIO_Init
    sdio_sdcard.o(.text) refers to misc.o(.text) for NVIC_Init
    sdio_sdcard.o(.text) refers to stm32f4xx_dma.o(.text) for DMA_GetCmdStatus
    sdio_sdcard.o(.text) refers to sys.o(.emb_text) for INTX_DISABLE
    sdio_sdcard.o(.text) refers to rt_memcpy_v6.o(.text) for __aeabi_memcpy
    spi.o(.text) refers to stm32f4xx_spi.o(.text) for SPI_I2S_GetFlagStatus
    spi.o(.text) refers to stm32f4xx_rcc.o(.text) for RCC_AHB1PeriphClockCmd
    spi.o(.text) refers to stm32f4xx_gpio.o(.text) for GPIO_Init
    startup_stm32f40_41xxx.o(STACK) refers (Special) to heapauxi.o(.text) for __use_two_region_memory
    startup_stm32f40_41xxx.o(HEAP) refers (Special) to heapauxi.o(.text) for __use_two_region_memory
    startup_stm32f40_41xxx.o(RESET) refers (Special) to heapauxi.o(.text) for __use_two_region_memory
    startup_stm32f40_41xxx.o(RESET) refers to startup_stm32f40_41xxx.o(STACK) for __initial_sp
    startup_stm32f40_41xxx.o(RESET) refers to startup_stm32f40_41xxx.o(.text) for Reset_Handler
    startup_stm32f40_41xxx.o(RESET) refers to stm32f4xx_it.o(.text) for NMI_Handler
    startup_stm32f40_41xxx.o(RESET) refers to os_cpu_a.o(.text) for PendSV_Handler
    startup_stm32f40_41xxx.o(RESET) refers to delay.o(.text) for SysTick_Handler
    startup_stm32f40_41xxx.o(RESET) refers to timer.o(.text) for TIM3_IRQHandler
    startup_stm32f40_41xxx.o(RESET) refers to usmart.o(.text) for TIM4_IRQHandler
    startup_stm32f40_41xxx.o(RESET) refers to usart.o(.text) for USART1_IRQHandler
    startup_stm32f40_41xxx.o(RESET) refers to sdio_sdcard.o(.text) for SDIO_IRQHandler
    startup_stm32f40_41xxx.o(RESET) refers to dcmi.o(.text) for DMA2_Stream1_IRQHandler
    startup_stm32f40_41xxx.o(RESET) refers to lan8720.o(.text) for ETH_IRQHandler
    startup_stm32f40_41xxx.o(.text) refers (Special) to heapauxi.o(.text) for __use_two_region_memory
    startup_stm32f40_41xxx.o(.text) refers to system_stm32f4xx.o(.text) for SystemInit
    startup_stm32f40_41xxx.o(.text) refers to __main.o(!!!main) for __main
    startup_stm32f40_41xxx.o(.text) refers to startup_stm32f40_41xxx.o(HEAP) for Heap_Mem
    startup_stm32f40_41xxx.o(.text) refers to startup_stm32f40_41xxx.o(STACK) for Stack_Mem
    stm32f4xx_gpio.o(.text) refers to stm32f4xx_rcc.o(.text) for RCC_AHB1PeriphResetCmd
    stm32f4xx_rcc.o(.text) refers to stm32f4xx_rcc.o(.data) for APBAHBPrescTable
    stm32f4xx_syscfg.o(.text) refers to stm32f4xx_rcc.o(.text) for RCC_APB2PeriphResetCmd
    stm32f4xx_tim.o(.text) refers to stm32f4xx_rcc.o(.text) for RCC_APB2PeriphResetCmd
    stm32f4xx_usart.o(.text) refers to stm32f4xx_rcc.o(.text) for RCC_APB2PeriphResetCmd
    stm32f4x7_eth.o(.text) refers to stm32f4xx_rcc.o(.text) for RCC_AHB1PeriphResetCmd
    stm32f4x7_eth.o(.text) refers to stm32f4x7_eth.o(.data) for DMARxDescToGet
    stm32f4x7_eth.o(.text) refers to stm32f4x7_eth.o(.bss) for RX_Frame_Descriptor
    stm32f4xx_adc.o(.text) refers to stm32f4xx_rcc.o(.text) for RCC_APB2PeriphResetCmd
    stm32f4xx_fsmc.o(.text) refers to stm32f4xx_fsmc.o(.constdata) for FSMC_DefaultTimingStruct
    stm32f4xx_spi.o(.text) refers to stm32f4xx_rcc.o(.text) for RCC_APB2PeriphResetCmd
    stm32f4xx_sdio.o(.text) refers to stm32f4xx_rcc.o(.text) for RCC_APB2PeriphResetCmd
    delay.o(.text) refers to os_core.o(.text) for OSSchedLock
    delay.o(.text) refers to os_time.o(.text) for OSTimeDly
    delay.o(.text) refers to misc.o(.text) for SysTick_CLKSourceConfig
    delay.o(.text) refers to os_core.o(.data) for OSRunning
    delay.o(.text) refers to delay.o(.data) for fac_us
    usart.o(.rev16_text) refers (Special) to use_no_semi_2.o(.text) for __use_no_semihosting
    usart.o(.revsh_text) refers (Special) to use_no_semi_2.o(.text) for __use_no_semihosting
    usart.o(.text) refers (Special) to use_no_semi_2.o(.text) for __use_no_semihosting
    usart.o(.text) refers to stm32f4xx_rcc.o(.text) for RCC_AHB1PeriphClockCmd
    usart.o(.text) refers to stm32f4xx_gpio.o(.text) for GPIO_PinAFConfig
    usart.o(.text) refers to stm32f4xx_usart.o(.text) for USART_Init
    usart.o(.text) refers to misc.o(.text) for NVIC_Init
    usart.o(.text) refers to os_core.o(.text) for OSIntEnter
    usart.o(.text) refers to usart.o(.data) for USART_RX_STA
    usart.o(.text) refers to usart.o(.bss) for USART_RX_BUF
    usart.o(.bss) refers (Special) to use_no_semi_2.o(.text) for __use_no_semihosting
    usart.o(.data) refers (Special) to use_no_semi_2.o(.text) for __use_no_semihosting
    usmart.o(.text) refers to _printf_percent.o(.ARM.Collect$$_printf_percent$$00000000) for _printf_percent
    usmart.o(.text) refers to _printf_s.o(.ARM.Collect$$_printf_percent$$00000014) for _printf_s
    usmart.o(.text) refers to _printf_str.o(.text) for _printf_str
    usmart.o(.text) refers to _printf_pad.o(.text) for _printf_pre_padding
    usmart.o(.text) refers to _printf_x.o(.ARM.Collect$$_printf_percent$$0000000C) for _printf_x
    usmart.o(.text) refers to _printf_hex_int.o(.text) for _printf_longlong_hex
    usmart.o(.text) refers to _printf_u.o(.ARM.Collect$$_printf_percent$$0000000A) for _printf_u
    usmart.o(.text) refers to _printf_dec.o(.text) for _printf_int_dec
    usmart.o(.text) refers to _printf_c.o(.ARM.Collect$$_printf_percent$$00000013) for _printf_c
    usmart.o(.text) refers to _printf_d.o(.ARM.Collect$$_printf_percent$$00000009) for _printf_d
    usmart.o(.text) refers to usmart_str.o(.text) for usmart_get_cmdname
    usmart.o(.text) refers to noretval__2printf.o(.text) for __2printf
    usmart.o(.text) refers to usmart.o(.data) for sys_cmd_tab
    usmart.o(.text) refers to usmart_config.o(.data) for usmart_dev
    usmart.o(.text) refers to misc.o(.text) for NVIC_Init
    usmart.o(.text) refers to usart.o(.data) for USART_RX_STA
    usmart.o(.text) refers to usart.o(.bss) for USART_RX_BUF
    usmart.o(.data) refers to usmart.o(.conststring) for .conststring
    usmart_config.o(.data) refers to usmart.o(.text) for read_addr
    usmart_config.o(.data) refers to usmart_config.o(.conststring) for .conststring
    usmart_config.o(.data) refers to delay.o(.text) for delay_ms
    usmart_config.o(.data) refers to stm32f4x7_eth.o(.text) for ETH_ReadPHYRegister
    usmart_str.o(.text) refers to usmart_config.o(.data) for usmart_dev
    lwip_comm.o(.text) refers to _printf_percent.o(.ARM.Collect$$_printf_percent$$00000000) for _printf_percent
    lwip_comm.o(.text) refers to _printf_d.o(.ARM.Collect$$_printf_percent$$00000009) for _printf_d
    lwip_comm.o(.text) refers to _printf_dec.o(.text) for _printf_int_dec
    lwip_comm.o(.text) refers to ethernetif.o(.text) for ethernetif_input
    lwip_comm.o(.text) refers to malloc.o(.text) for myfree
    lwip_comm.o(.text) refers to memp.o(.text) for memp_get_memorysize
    lwip_comm.o(.text) refers to lan8720.o(.text) for ETH_Mem_Malloc
    lwip_comm.o(.text) refers to tcpip.o(.text) for tcpip_init
    lwip_comm.o(.text) refers to os_cpu_a.o(.text) for OS_CPU_SR_Save
    lwip_comm.o(.text) refers to netif.o(.text) for netif_add
    lwip_comm.o(.text) refers to dhcp.o(.text) for dhcp_stop
    lwip_comm.o(.text) refers to os_task.o(.text) for OSTaskDel
    lwip_comm.o(.text) refers to noretval__2printf.o(.text) for __2printf
    lwip_comm.o(.text) refers to lcd.o(.text) for LCD_ShowString
    lwip_comm.o(.text) refers to noretval__2sprintf.o(.text) for __2sprintf
    lwip_comm.o(.text) refers to delay.o(.text) for delay_ms
    lwip_comm.o(.text) refers to tcp_client.o(.text) for tcp_client_init
    lwip_comm.o(.text) refers to tcp_server.o(.text) for tcp_server_init
    lwip_comm.o(.text) refers to lwip_comm.o(.bss) for lwip_netif
    lwip_comm.o(.text) refers to memp.o(.data) for memp_memory
    lwip_comm.o(.text) refers to mem.o(.data) for ram_heap
    lwip_comm.o(.text) refers to lwip_comm.o(.data) for TCPIP_THREAD_TASK_STK
    lwip_comm.o(.text) refers to lcd.o(.data) for POINT_COLOR
    lwip_comm.o(.text) refers to tcp.o(.text) for tcp_tmr
    lwip_comm.o(.text) refers to etharp.o(.text) for etharp_tmr
    tcp_server.o(.text) refers to _printf_percent.o(.ARM.Collect$$_printf_percent$$00000000) for _printf_percent
    tcp_server.o(.text) refers to _printf_d.o(.ARM.Collect$$_printf_percent$$00000009) for _printf_d
    tcp_server.o(.text) refers to _printf_s.o(.ARM.Collect$$_printf_percent$$00000014) for _printf_s
    tcp_server.o(.text) refers to _printf_dec.o(.text) for _printf_int_dec
    tcp_server.o(.text) refers to _printf_str.o(.text) for _printf_str
    tcp_server.o(.text) refers to noretval__2printf.o(.text) for __2printf
    tcp_server.o(.text) refers to os_time.o(.text) for OSTimeDlyHMSM
    tcp_server.o(.text) refers to api_lib.o(.text) for netconn_recv
    tcp_server.o(.text) refers to os_cpu_a.o(.text) for OS_CPU_SR_Save
    tcp_server.o(.text) refers to malloc.o(.text) for mymalloc
    tcp_server.o(.text) refers to rt_memcpy_v6.o(.text) for __aeabi_memcpy
    tcp_server.o(.text) refers to netbuf.o(.text) for netbuf_delete
    tcp_server.o(.text) refers to noretval__2sprintf.o(.text) for __2sprintf
    tcp_server.o(.text) refers to os_q.o(.text) for OSQPost
    tcp_server.o(.text) refers to lcd.o(.text) for LCD_ShowString
    tcp_server.o(.text) refers to os_task.o(.text) for OSTaskCreate
    tcp_server.o(.text) refers to tcp_server.o(.data) for isAccepted
    tcp_server.o(.text) refers to tcp_client.o(.data) for tcp_handle_event
    tcp_server.o(.text) refers to ip_addr.o(.constdata) for ip_addr_any
    tcp_server.o(.text) refers to lcd.o(.data) for POINT_COLOR
    tcp_client.o(.text) refers to _printf_percent.o(.ARM.Collect$$_printf_percent$$00000000) for _printf_percent
    tcp_client.o(.text) refers to _printf_d.o(.ARM.Collect$$_printf_percent$$00000009) for _printf_d
    tcp_client.o(.text) refers to _printf_s.o(.ARM.Collect$$_printf_percent$$00000014) for _printf_s
    tcp_client.o(.text) refers to _printf_dec.o(.text) for _printf_int_dec
    tcp_client.o(.text) refers to _printf_str.o(.text) for _printf_str
    tcp_client.o(.text) refers to _printf_c.o(.ARM.Collect$$_printf_percent$$00000013) for _printf_c
    tcp_client.o(.text) refers to noretval__2printf.o(.text) for __2printf
    tcp_client.o(.text) refers to os_time.o(.text) for OSTimeDlyHMSM
    tcp_client.o(.text) refers to os_q.o(.text) for OSQPend
    tcp_client.o(.text) refers to malloc.o(.text) for myfree
    tcp_client.o(.text) refers to strcmpv7m.o(.text) for strcmp
    tcp_client.o(.text) refers to strlen.o(.text) for strlen
    tcp_client.o(.text) refers to api_lib.o(.text) for netconn_write_partly
    tcp_client.o(.text) refers to lcd.o(.text) for LCD_ShowString
    tcp_client.o(.text) refers to noretval__2sprintf.o(.text) for __2sprintf
    tcp_client.o(.text) refers to tcp_client.o(.data) for isConnected
    tcp_client.o(.text) refers to tcp_server.o(.data) for isAccepted
    tcp_client.o(.text) refers to main.o(.constdata) for master
    tcp_client.o(.text) refers to lcd.o(.data) for POINT_COLOR
    tcp_client.o(.text) refers to ihome_function.o(.data) for ihome_start_flag
    tcp_client.o(.text) refers to main.o(.data) for password
    tcp_client.o(.text) refers to os_cpu_a.o(.text) for OS_CPU_SR_Save
    tcp_client.o(.text) refers to rt_memcpy_v6.o(.text) for __aeabi_memcpy
    tcp_client.o(.text) refers to netbuf.o(.text) for netbuf_delete
    tcp_client.o(.text) refers to lwip_comm.o(.bss) for lwipdev
    tcp_client.o(.text) refers to os_task.o(.text) for OSTaskCreate
    etharp.o(.text) refers to _printf_percent.o(.ARM.Collect$$_printf_percent$$00000000) for _printf_percent
    etharp.o(.text) refers to _printf_d.o(.ARM.Collect$$_printf_percent$$00000009) for _printf_d
    etharp.o(.text) refers to _printf_s.o(.ARM.Collect$$_printf_percent$$00000014) for _printf_s
    etharp.o(.text) refers to _printf_dec.o(.text) for _printf_int_dec
    etharp.o(.text) refers to _printf_str.o(.text) for _printf_str
    etharp.o(.text) refers to pbuf.o(.text) for pbuf_free
    etharp.o(.text) refers to noretval__2printf.o(.text) for __2printf
    etharp.o(.text) refers to ip_addr.o(.text) for ip4_addr_isbroadcast
    etharp.o(.text) refers to etharp.o(.bss) for arp_table
    etharp.o(.text) refers to etharp.o(.constdata) for ethzero
    etharp.o(.text) refers to etharp.o(.conststring) for .conststring
    etharp.o(.text) refers to def.o(.text) for lwip_htons
    etharp.o(.text) refers to dhcp.o(.text) for dhcp_arp_reply
    etharp.o(.text) refers to memcmp.o(.text) for memcmp
    etharp.o(.text) refers to ip.o(.text) for ip_input
    etharp.o(.text) refers to etharp.o(.data) for etharp_cached_entry
    ethernetif.o(.text) refers to _printf_percent.o(.ARM.Collect$$_printf_percent$$00000000) for _printf_percent
    ethernetif.o(.text) refers to _printf_d.o(.ARM.Collect$$_printf_percent$$00000009) for _printf_d
    ethernetif.o(.text) refers to _printf_s.o(.ARM.Collect$$_printf_percent$$00000014) for _printf_s
    ethernetif.o(.text) refers to _printf_dec.o(.text) for _printf_int_dec
    ethernetif.o(.text) refers to _printf_str.o(.text) for _printf_str
    ethernetif.o(.text) refers to stm32f4x7_eth.o(.text) for ETH_MACAddressConfig
    ethernetif.o(.text) refers to lan8720.o(.text) for ETH_GetCurrentTxBuffer
    ethernetif.o(.text) refers to rt_memcpy_v6.o(.text) for __aeabi_memcpy
    ethernetif.o(.text) refers to pbuf.o(.text) for pbuf_alloc
    ethernetif.o(.text) refers to noretval__2printf.o(.text) for __2printf
    ethernetif.o(.text) refers to lwip_comm.o(.bss) for lwipdev
    ethernetif.o(.text) refers to lan8720.o(.data) for Tx_Buff
    ethernetif.o(.text) refers to etharp.o(.text) for etharp_output
    icmp.o(.text) refers to _printf_percent.o(.ARM.Collect$$_printf_percent$$00000000) for _printf_percent
    icmp.o(.text) refers to _printf_d.o(.ARM.Collect$$_printf_percent$$00000009) for _printf_d
    icmp.o(.text) refers to _printf_s.o(.ARM.Collect$$_printf_percent$$00000014) for _printf_s
    icmp.o(.text) refers to _printf_dec.o(.text) for _printf_int_dec
    icmp.o(.text) refers to _printf_str.o(.text) for _printf_str
    icmp.o(.text) refers to pbuf.o(.text) for pbuf_header
    icmp.o(.text) refers to ip_addr.o(.text) for ip4_addr_isbroadcast
    icmp.o(.text) refers to inet_chksum.o(.text) for inet_chksum_pbuf
    icmp.o(.text) refers to noretval__2printf.o(.text) for __2printf
    icmp.o(.text) refers to ip.o(.text) for ip_output_if
    icmp.o(.text) refers to rt_memcpy_v6.o(.text) for __aeabi_memcpy
    icmp.o(.text) refers to ip.o(.data) for current_iphdr_dest
    inet_chksum.o(.text) refers to _printf_percent.o(.ARM.Collect$$_printf_percent$$00000000) for _printf_percent
    inet_chksum.o(.text) refers to _printf_d.o(.ARM.Collect$$_printf_percent$$00000009) for _printf_d
    inet_chksum.o(.text) refers to _printf_s.o(.ARM.Collect$$_printf_percent$$00000014) for _printf_s
    inet_chksum.o(.text) refers to _printf_dec.o(.text) for _printf_int_dec
    inet_chksum.o(.text) refers to _printf_str.o(.text) for _printf_str
    inet_chksum.o(.text) refers to def.o(.text) for lwip_htons
    inet_chksum.o(.text) refers to noretval__2printf.o(.text) for __2printf
    ip.o(.text) refers to _printf_percent.o(.ARM.Collect$$_printf_percent$$00000000) for _printf_percent
    ip.o(.text) refers to _printf_d.o(.ARM.Collect$$_printf_percent$$00000009) for _printf_d
    ip.o(.text) refers to _printf_s.o(.ARM.Collect$$_printf_percent$$00000014) for _printf_s
    ip.o(.text) refers to _printf_dec.o(.text) for _printf_int_dec
    ip.o(.text) refers to _printf_str.o(.text) for _printf_str
    ip.o(.text) refers to pbuf.o(.text) for pbuf_free
    ip.o(.text) refers to def.o(.text) for lwip_ntohs
    ip.o(.text) refers to ip_addr.o(.text) for ip4_addr_isbroadcast
    ip.o(.text) refers to ip_frag.o(.text) for ip_reass
    ip.o(.text) refers to raw.o(.text) for raw_input
    ip.o(.text) refers to udp.o(.text) for udp_input
    ip.o(.text) refers to tcp_in.o(.text) for tcp_input
    ip.o(.text) refers to icmp.o(.text) for icmp_input
    ip.o(.text) refers to noretval__2printf.o(.text) for __2printf
    ip.o(.text) refers to netif.o(.data) for netif_list
    ip.o(.text) refers to ip.o(.data) for current_iphdr_dest
    ip_addr.o(.text) refers to _printf_percent.o(.ARM.Collect$$_printf_percent$$00000000) for _printf_percent
    ip_addr.o(.text) refers to _printf_d.o(.ARM.Collect$$_printf_percent$$00000009) for _printf_d
    ip_addr.o(.text) refers to _printf_s.o(.ARM.Collect$$_printf_percent$$00000014) for _printf_s
    ip_addr.o(.text) refers to _printf_dec.o(.text) for _printf_int_dec
    ip_addr.o(.text) refers to _printf_str.o(.text) for _printf_str
    ip_addr.o(.text) refers to def.o(.text) for lwip_htonl
    ip_addr.o(.text) refers to rt_ctype_table.o(.text) for __rt_ctype_table
    ip_addr.o(.text) refers to noretval__2printf.o(.text) for __2printf
    ip_addr.o(.text) refers to ip_addr.o(.bss) for str
    ip_frag.o(.text) refers to _printf_percent.o(.ARM.Collect$$_printf_percent$$00000000) for _printf_percent
    ip_frag.o(.text) refers to _printf_d.o(.ARM.Collect$$_printf_percent$$00000009) for _printf_d
    ip_frag.o(.text) refers to _printf_s.o(.ARM.Collect$$_printf_percent$$00000014) for _printf_s
    ip_frag.o(.text) refers to _printf_dec.o(.text) for _printf_int_dec
    ip_frag.o(.text) refers to _printf_str.o(.text) for _printf_str
    ip_frag.o(.text) refers to noretval__2printf.o(.text) for __2printf
    ip_frag.o(.text) refers to memp.o(.text) for memp_free
    ip_frag.o(.text) refers to rt_memcpy_v6.o(.text) for __aeabi_memcpy
    ip_frag.o(.text) refers to icmp.o(.text) for icmp_time_exceeded
    ip_frag.o(.text) refers to pbuf.o(.text) for pbuf_clen
    ip_frag.o(.text) refers to rt_memclr_w.o(.text) for __aeabi_memclr4
    ip_frag.o(.text) refers to def.o(.text) for lwip_ntohs
    ip_frag.o(.text) refers to ip_frag.o(.data) for reassdatagrams
    ip_frag.o(.text) refers to inet_chksum.o(.text) for inet_chksum
    dhcp.o(.text) refers to _printf_percent.o(.ARM.Collect$$_printf_percent$$00000000) for _printf_percent
    dhcp.o(.text) refers to _printf_d.o(.ARM.Collect$$_printf_percent$$00000009) for _printf_d
    dhcp.o(.text) refers to _printf_s.o(.ARM.Collect$$_printf_percent$$00000014) for _printf_s
    dhcp.o(.text) refers to _printf_dec.o(.text) for _printf_int_dec
    dhcp.o(.text) refers to _printf_str.o(.text) for _printf_str
    dhcp.o(.text) refers to noretval__2printf.o(.text) for __2printf
    dhcp.o(.text) refers to pbuf.o(.text) for pbuf_free
    dhcp.o(.text) refers to def.o(.text) for lwip_htonl
    dhcp.o(.text) refers to dhcp.o(.conststring) for .conststring
    dhcp.o(.text) refers to dhcp.o(.data) for xid
    dhcp.o(.text) refers to udp.o(.text) for udp_sendto_if
    dhcp.o(.text) refers to netif.o(.text) for netif_set_down
    dhcp.o(.text) refers to etharp.o(.text) for etharp_query
    dhcp.o(.text) refers to ip_addr.o(.constdata) for ip_addr_broadcast
    dhcp.o(.text) refers to dhcp.o(.bss) for dhcp_rx_options_given
    dhcp.o(.text) refers to netif.o(.data) for netif_list
    dhcp.o(.text) refers to rt_memclr_w.o(.text) for __aeabi_memclr4
    dhcp.o(.text) refers to mem.o(.text) for mem_free
    init.o(.text) refers to sys_arch.o(.text) for sys_init
    init.o(.text) refers to mem.o(.text) for mem_init
    init.o(.text) refers to memp.o(.text) for memp_init
    init.o(.text) refers to netif.o(.text) for netif_init
    init.o(.text) refers to sockets.o(.text) for lwip_socket_init
    init.o(.text) refers to udp.o(.text) for udp_init
    init.o(.text) refers to tcp.o(.text) for tcp_init
    init.o(.text) refers to timers.o(.text) for sys_timeouts_init
    memp.o(.text) refers to _printf_percent.o(.ARM.Collect$$_printf_percent$$00000000) for _printf_percent
    memp.o(.text) refers to _printf_d.o(.ARM.Collect$$_printf_percent$$00000009) for _printf_d
    memp.o(.text) refers to _printf_s.o(.ARM.Collect$$_printf_percent$$00000014) for _printf_s
    memp.o(.text) refers to _printf_dec.o(.text) for _printf_int_dec
    memp.o(.text) refers to _printf_str.o(.text) for _printf_str
    memp.o(.text) refers to noretval__2printf.o(.text) for __2printf
    memp.o(.text) refers to os_cpu_a.o(.text) for OS_CPU_SR_Save
    memp.o(.text) refers to memp.o(.data) for memp_memory
    memp.o(.text) refers to memp.o(.bss) for memp_tab
    memp.o(.text) refers to memp.o(.constdata) for memp_sizes
    memp.o(.data) refers to memp.o(.conststring) for .conststring
    netif.o(.text) refers to _printf_percent.o(.ARM.Collect$$_printf_percent$$00000000) for _printf_percent
    netif.o(.text) refers to _printf_d.o(.ARM.Collect$$_printf_percent$$00000009) for _printf_d
    netif.o(.text) refers to _printf_s.o(.ARM.Collect$$_printf_percent$$00000014) for _printf_s
    netif.o(.text) refers to _printf_dec.o(.text) for _printf_int_dec
    netif.o(.text) refers to _printf_str.o(.text) for _printf_str
    netif.o(.text) refers to tcp.o(.text) for tcp_abort
    netif.o(.text) refers to noretval__2printf.o(.text) for __2printf
    netif.o(.text) refers to etharp.o(.text) for etharp_cleanup_netif
    netif.o(.text) refers to dhcp.o(.text) for dhcp_network_changed
    netif.o(.text) refers to tcp.o(.data) for tcp_active_pcbs
    netif.o(.text) refers to netif.o(.data) for netif_num
    pbuf.o(.text) refers to _printf_percent.o(.ARM.Collect$$_printf_percent$$00000000) for _printf_percent
    pbuf.o(.text) refers to _printf_d.o(.ARM.Collect$$_printf_percent$$00000009) for _printf_d
    pbuf.o(.text) refers to _printf_s.o(.ARM.Collect$$_printf_percent$$00000014) for _printf_s
    pbuf.o(.text) refers to _printf_dec.o(.text) for _printf_int_dec
    pbuf.o(.text) refers to _printf_str.o(.text) for _printf_str
    pbuf.o(.text) refers to noretval__2printf.o(.text) for __2printf
    pbuf.o(.text) refers to os_cpu_a.o(.text) for OS_CPU_SR_Save
    pbuf.o(.text) refers to memp.o(.text) for memp_free
    pbuf.o(.text) refers to mem.o(.text) for mem_free
    pbuf.o(.text) refers to rt_memcpy_v6.o(.text) for __aeabi_memcpy
    pbuf.o(.text) refers to strlen.o(.text) for strlen
    raw.o(.text) refers to _printf_percent.o(.ARM.Collect$$_printf_percent$$00000000) for _printf_percent
    raw.o(.text) refers to _printf_d.o(.ARM.Collect$$_printf_percent$$00000009) for _printf_d
    raw.o(.text) refers to _printf_s.o(.ARM.Collect$$_printf_percent$$00000014) for _printf_s
    raw.o(.text) refers to _printf_dec.o(.text) for _printf_int_dec
    raw.o(.text) refers to _printf_str.o(.text) for _printf_str
    raw.o(.text) refers to pbuf.o(.text) for pbuf_header
    raw.o(.text) refers to noretval__2printf.o(.text) for __2printf
    raw.o(.text) refers to ip.o(.text) for ip_route
    raw.o(.text) refers to memp.o(.text) for memp_free
    raw.o(.text) refers to rt_memclr_w.o(.text) for __aeabi_memclr4
    raw.o(.text) refers to raw.o(.data) for raw_pcbs
    raw.o(.text) refers to ip.o(.data) for current_iphdr_dest
    tcp.o(.text) refers to _printf_percent.o(.ARM.Collect$$_printf_percent$$00000000) for _printf_percent
    tcp.o(.text) refers to _printf_d.o(.ARM.Collect$$_printf_percent$$00000009) for _printf_d
    tcp.o(.text) refers to _printf_s.o(.ARM.Collect$$_printf_percent$$00000014) for _printf_s
    tcp.o(.text) refers to _printf_dec.o(.text) for _printf_int_dec
    tcp.o(.text) refers to _printf_str.o(.text) for _printf_str
    tcp.o(.text) refers to pbuf.o(.text) for pbuf_free
    tcp.o(.text) refers to memp.o(.text) for memp_free
    tcp.o(.text) refers to noretval__2printf.o(.text) for __2printf
    tcp.o(.text) refers to tcp_out.o(.text) for tcp_zero_window_probe
    tcp.o(.text) refers to tcp.o(.data) for tcp_ticks
    tcp.o(.text) refers to tcp.o(.constdata) for tcp_persist_backoff
    tcp.o(.text) refers to timers.o(.text) for tcp_timer_needed
    tcp.o(.text) refers to ip.o(.text) for ip_route
    tcp.o(.text) refers to rt_memclr_w.o(.text) for __aeabi_memclr4
    tcp.o(.constdata) refers to tcp.o(.conststring) for .conststring
    tcp.o(.constdata) refers to tcp.o(.data) for tcp_listen_pcbs
    tcp_in.o(.text) refers to _printf_percent.o(.ARM.Collect$$_printf_percent$$00000000) for _printf_percent
    tcp_in.o(.text) refers to _printf_d.o(.ARM.Collect$$_printf_percent$$00000009) for _printf_d
    tcp_in.o(.text) refers to _printf_s.o(.ARM.Collect$$_printf_percent$$00000014) for _printf_s
    tcp_in.o(.text) refers to _printf_dec.o(.text) for _printf_int_dec
    tcp_in.o(.text) refers to _printf_str.o(.text) for _printf_str
    tcp_in.o(.text) refers to noretval__2printf.o(.text) for __2printf
    tcp_in.o(.text) refers to tcp_out.o(.text) for tcp_rexmit_fast
    tcp_in.o(.text) refers to pbuf.o(.text) for pbuf_clen
    tcp_in.o(.text) refers to def.o(.text) for lwip_ntohs
    tcp_in.o(.text) refers to tcp.o(.text) for tcp_seg_free
    tcp_in.o(.text) refers to tcp_in.o(.data) for flags
    tcp_in.o(.text) refers to tcp.o(.data) for tcp_ticks
    tcp_in.o(.text) refers to tcp_in.o(.bss) for inseg
    tcp_in.o(.text) refers to ip.o(.data) for current_iphdr_src
    tcp_in.o(.text) refers to timers.o(.text) for tcp_timer_needed
    tcp_in.o(.text) refers to ip_addr.o(.text) for ip4_addr_isbroadcast
    tcp_in.o(.text) refers to memp.o(.text) for memp_free
    tcp_out.o(.text) refers to _printf_percent.o(.ARM.Collect$$_printf_percent$$00000000) for _printf_percent
    tcp_out.o(.text) refers to _printf_d.o(.ARM.Collect$$_printf_percent$$00000009) for _printf_d
    tcp_out.o(.text) refers to _printf_s.o(.ARM.Collect$$_printf_percent$$00000014) for _printf_s
    tcp_out.o(.text) refers to _printf_dec.o(.text) for _printf_int_dec
    tcp_out.o(.text) refers to _printf_str.o(.text) for _printf_str
    tcp_out.o(.text) refers to pbuf.o(.text) for pbuf_alloc
    tcp_out.o(.text) refers to noretval__2printf.o(.text) for __2printf
    tcp_out.o(.text) refers to def.o(.text) for lwip_htons
    tcp_out.o(.text) refers to memp.o(.text) for memp_malloc
    tcp_out.o(.text) refers to tcp.o(.text) for tcp_seg_free
    tcp_out.o(.text) refers to tcp_out.o(.conststring) for .conststring
    tcp_out.o(.text) refers to rt_memcpy_v6.o(.text) for __aeabi_memcpy
    tcp_out.o(.text) refers to ip.o(.text) for ip_output
    tcp_out.o(.text) refers to tcp.o(.data) for tcp_ticks
    tcp_out.o(.text) refers to tcp_in.o(.data) for tcp_input_pcb
    timers.o(.text) refers to _printf_percent.o(.ARM.Collect$$_printf_percent$$00000000) for _printf_percent
    timers.o(.text) refers to _printf_d.o(.ARM.Collect$$_printf_percent$$00000009) for _printf_d
    timers.o(.text) refers to _printf_s.o(.ARM.Collect$$_printf_percent$$00000014) for _printf_s
    timers.o(.text) refers to _printf_dec.o(.text) for _printf_int_dec
    timers.o(.text) refers to _printf_str.o(.text) for _printf_str
    timers.o(.text) refers to memp.o(.text) for memp_malloc
    timers.o(.text) refers to noretval__2printf.o(.text) for __2printf
    timers.o(.text) refers to tcp.o(.text) for tcp_tmr
    timers.o(.text) refers to ip_frag.o(.text) for ip_reass_tmr
    timers.o(.text) refers to etharp.o(.text) for etharp_tmr
    timers.o(.text) refers to dhcp.o(.text) for dhcp_coarse_tmr
    timers.o(.text) refers to sys_arch.o(.text) for sys_arch_mbox_fetch
    timers.o(.text) refers to timers.o(.data) for next_timeout
    timers.o(.text) refers to tcp.o(.data) for tcp_active_pcbs
    udp.o(.text) refers to _printf_percent.o(.ARM.Collect$$_printf_percent$$00000000) for _printf_percent
    udp.o(.text) refers to _printf_d.o(.ARM.Collect$$_printf_percent$$00000009) for _printf_d
    udp.o(.text) refers to _printf_s.o(.ARM.Collect$$_printf_percent$$00000014) for _printf_s
    udp.o(.text) refers to _printf_dec.o(.text) for _printf_int_dec
    udp.o(.text) refers to _printf_str.o(.text) for _printf_str
    udp.o(.text) refers to pbuf.o(.text) for pbuf_header
    udp.o(.text) refers to ip_addr.o(.text) for ip4_addr_isbroadcast
    udp.o(.text) refers to def.o(.text) for lwip_ntohs
    udp.o(.text) refers to noretval__2printf.o(.text) for __2printf
    udp.o(.text) refers to icmp.o(.text) for icmp_dest_unreach
    udp.o(.text) refers to ip.o(.text) for ip_output_if
    udp.o(.text) refers to udp.o(.data) for udp_port
    udp.o(.text) refers to ip.o(.data) for current_iphdr_dest
    udp.o(.text) refers to memp.o(.text) for memp_free
    udp.o(.text) refers to rt_memclr_w.o(.text) for __aeabi_memclr4
    mem.o(.text) refers to _printf_percent.o(.ARM.Collect$$_printf_percent$$00000000) for _printf_percent
    mem.o(.text) refers to _printf_d.o(.ARM.Collect$$_printf_percent$$00000009) for _printf_d
    mem.o(.text) refers to _printf_s.o(.ARM.Collect$$_printf_percent$$00000014) for _printf_s
    mem.o(.text) refers to _printf_dec.o(.text) for _printf_int_dec
    mem.o(.text) refers to _printf_str.o(.text) for _printf_str
    mem.o(.text) refers to noretval__2printf.o(.text) for __2printf
    mem.o(.text) refers to sys_arch.o(.text) for sys_sem_new
    mem.o(.text) refers to os_cpu_a.o(.text) for OS_CPU_SR_Save
    mem.o(.text) refers to mem.o(.data) for ram
    mem.o(.text) refers to rt_memclr.o(.text) for __aeabi_memclr
    sys_arch.o(.text) refers to _printf_percent.o(.ARM.Collect$$_printf_percent$$00000000) for _printf_percent
    sys_arch.o(.text) refers to _printf_d.o(.ARM.Collect$$_printf_percent$$00000009) for _printf_d
    sys_arch.o(.text) refers to _printf_s.o(.ARM.Collect$$_printf_percent$$00000014) for _printf_s
    sys_arch.o(.text) refers to _printf_dec.o(.text) for _printf_int_dec
    sys_arch.o(.text) refers to _printf_str.o(.text) for _printf_str
    sys_arch.o(.text) refers to malloc.o(.text) for mymalloc
    sys_arch.o(.text) refers to os_q.o(.text) for OSQCreate
    sys_arch.o(.text) refers to noretval__2printf.o(.text) for __2printf
    sys_arch.o(.text) refers to os_time.o(.text) for OSTimeGet
    sys_arch.o(.text) refers to rt_memclr_w.o(.text) for __aeabi_memclr4
    sys_arch.o(.text) refers to os_sem.o(.text) for OSSemCreate
    sys_arch.o(.text) refers to os_core.o(.text) for OSEventNameSet
    sys_arch.o(.text) refers to strcmpv7m.o(.text) for strcmp
    sys_arch.o(.text) refers to os_cpu_a.o(.text) for OS_CPU_SR_Save
    sys_arch.o(.text) refers to os_task.o(.text) for OSTaskCreate
    sys_arch.o(.text) refers to delay.o(.text) for delay_ms
    sys_arch.o(.text) refers to sys_arch.o(.constdata) for pvNullPointer
    sys_arch.o(.text) refers to lwip_comm.o(.data) for TCPIP_THREAD_TASK_STK
    api_lib.o(.text) refers to _printf_percent.o(.ARM.Collect$$_printf_percent$$00000000) for _printf_percent
    api_lib.o(.text) refers to _printf_d.o(.ARM.Collect$$_printf_percent$$00000009) for _printf_d
    api_lib.o(.text) refers to _printf_s.o(.ARM.Collect$$_printf_percent$$00000014) for _printf_s
    api_lib.o(.text) refers to _printf_dec.o(.text) for _printf_int_dec
    api_lib.o(.text) refers to _printf_str.o(.text) for _printf_str
    api_lib.o(.text) refers to api_msg.o(.text) for netconn_alloc
    api_lib.o(.text) refers to tcpip.o(.text) for tcpip_apimsg
    api_lib.o(.text) refers to noretval__2printf.o(.text) for __2printf
    api_lib.o(.text) refers to sys_arch.o(.text) for sys_sem_valid
    api_lib.o(.text) refers to memp.o(.text) for memp_free
    api_lib.o(.text) refers to os_cpu_a.o(.text) for OS_CPU_SR_Save
    api_msg.o(.text) refers to _printf_percent.o(.ARM.Collect$$_printf_percent$$00000000) for _printf_percent
    api_msg.o(.text) refers to _printf_d.o(.ARM.Collect$$_printf_percent$$00000009) for _printf_d
    api_msg.o(.text) refers to _printf_s.o(.ARM.Collect$$_printf_percent$$00000014) for _printf_s
    api_msg.o(.text) refers to _printf_dec.o(.text) for _printf_int_dec
    api_msg.o(.text) refers to _printf_str.o(.text) for _printf_str
    api_msg.o(.text) refers to sys_arch.o(.text) for sys_mbox_valid
    api_msg.o(.text) refers to pbuf.o(.text) for pbuf_alloc
    api_msg.o(.text) refers to memp.o(.text) for memp_malloc
    api_msg.o(.text) refers to netbuf.o(.text) for netbuf_delete
    api_msg.o(.text) refers to noretval__2printf.o(.text) for __2printf
    api_msg.o(.text) refers to tcp.o(.text) for tcp_recved
    api_msg.o(.text) refers to os_cpu_a.o(.text) for OS_CPU_SR_Save
    api_msg.o(.text) refers to ip.o(.data) for current_iphdr_src
    api_msg.o(.text) refers to tcp_out.o(.text) for tcp_write
    api_msg.o(.text) refers to raw.o(.text) for raw_new
    api_msg.o(.text) refers to udp.o(.text) for udp_new
    err.o(.text) refers to err.o(.data) for err_strerr
    err.o(.data) refers to err.o(.conststring) for .conststring
    netbuf.o(.text) refers to _printf_percent.o(.ARM.Collect$$_printf_percent$$00000000) for _printf_percent
    netbuf.o(.text) refers to _printf_d.o(.ARM.Collect$$_printf_percent$$00000009) for _printf_d
    netbuf.o(.text) refers to _printf_s.o(.ARM.Collect$$_printf_percent$$00000014) for _printf_s
    netbuf.o(.text) refers to _printf_dec.o(.text) for _printf_int_dec
    netbuf.o(.text) refers to _printf_str.o(.text) for _printf_str
    netbuf.o(.text) refers to memp.o(.text) for memp_malloc
    netbuf.o(.text) refers to pbuf.o(.text) for pbuf_free
    netbuf.o(.text) refers to noretval__2printf.o(.text) for __2printf
    sockets.o(.text) refers to _printf_percent.o(.ARM.Collect$$_printf_percent$$00000000) for _printf_percent
    sockets.o(.text) refers to _printf_d.o(.ARM.Collect$$_printf_percent$$00000009) for _printf_d
    sockets.o(.text) refers to _printf_s.o(.ARM.Collect$$_printf_percent$$00000014) for _printf_s
    sockets.o(.text) refers to _printf_dec.o(.text) for _printf_int_dec
    sockets.o(.text) refers to _printf_str.o(.text) for _printf_str
    sockets.o(.text) refers to os_cpu_a.o(.text) for OS_CPU_SR_Save
    sockets.o(.text) refers to pbuf.o(.text) for pbuf_free
    sockets.o(.text) refers to netbuf.o(.text) for netbuf_delete
    sockets.o(.text) refers to noretval__2printf.o(.text) for __2printf
    sockets.o(.text) refers to sys_arch.o(.text) for sys_sem_signal
    sockets.o(.text) refers to api_lib.o(.text) for netconn_accept
    sockets.o(.text) refers to def.o(.text) for lwip_htons
    sockets.o(.text) refers to rt_memcpy_v6.o(.text) for __aeabi_memcpy
    sockets.o(.text) refers to sockets.o(.bss) for sockets
    sockets.o(.text) refers to sockets.o(.data) for select_cb_list
    sockets.o(.text) refers to sockets.o(.constdata) for err_to_errno_table
    sockets.o(.text) refers to tcpip.o(.text) for tcpip_callback_with_block
    tcpip.o(.text) refers to _printf_percent.o(.ARM.Collect$$_printf_percent$$00000000) for _printf_percent
    tcpip.o(.text) refers to _printf_d.o(.ARM.Collect$$_printf_percent$$00000009) for _printf_d
    tcpip.o(.text) refers to _printf_s.o(.ARM.Collect$$_printf_percent$$00000014) for _printf_s
    tcpip.o(.text) refers to _printf_dec.o(.text) for _printf_int_dec
    tcpip.o(.text) refers to _printf_str.o(.text) for _printf_str
    tcpip.o(.text) refers to timers.o(.text) for sys_timeouts_mbox_fetch
    tcpip.o(.text) refers to etharp.o(.text) for ethernet_input
    tcpip.o(.text) refers to ip.o(.text) for ip_input
    tcpip.o(.text) refers to memp.o(.text) for memp_free
    tcpip.o(.text) refers to noretval__2printf.o(.text) for __2printf
    tcpip.o(.text) refers to sys_arch.o(.text) for sys_mbox_valid
    tcpip.o(.text) refers to init.o(.text) for lwip_init
    tcpip.o(.text) refers to pbuf.o(.text) for pbuf_free
    tcpip.o(.text) refers to tcpip.o(.data) for tcpip_init_done
    tcpip.o(.text) refers to mem.o(.text) for mem_free
    os_core.o(.text) refers to os_cpu_a.o(.text) for OS_CPU_SR_Save
    os_core.o(.text) refers to os_task.o(.text) for OSTaskStkChk
    os_core.o(.text) refers to os_time.o(.text) for OSTimeDly
    os_core.o(.text) refers to os_cpu_c.o(.text) for OSTaskStatHook
    os_core.o(.text) refers to os_flag.o(.text) for OS_FlagInit
    os_core.o(.text) refers to os_mem.o(.text) for OS_MemInit
    os_core.o(.text) refers to os_q.o(.text) for OS_QInit
    os_core.o(.text) refers to os_tmr.o(.text) for OSTmr_Init
    os_core.o(.text) refers to os_core.o(.data) for OSIntNesting
    os_core.o(.text) refers to os_core.o(.bss) for OSTCBPrioTbl
    os_core.o(.text) refers to os_core.o(.constdata) for OSUnMapTbl
    os_flag.o(.text) refers to os_cpu_a.o(.text) for OS_CPU_SR_Save
    os_flag.o(.text) refers to os_core.o(.text) for OS_Sched
    os_flag.o(.text) refers to os_core.o(.data) for OSIntNesting
    os_flag.o(.text) refers to os_core.o(.bss) for OSFlagTbl
    os_mbox.o(.text) refers to os_cpu_a.o(.text) for OS_CPU_SR_Save
    os_mbox.o(.text) refers to os_core.o(.text) for OS_EventWaitListInit
    os_mbox.o(.text) refers to os_core.o(.data) for OSIntNesting
    os_mem.o(.text) refers to os_cpu_a.o(.text) for OS_CPU_SR_Save
    os_mem.o(.text) refers to os_core.o(.text) for OS_StrLen
    os_mem.o(.text) refers to os_core.o(.data) for OSMemFreeList
    os_mem.o(.text) refers to os_core.o(.bss) for OSMemTbl
    os_mutex.o(.text) refers to os_cpu_a.o(.text) for OS_CPU_SR_Save
    os_mutex.o(.text) refers to os_core.o(.text) for OS_EventWaitListInit
    os_mutex.o(.text) refers to os_core.o(.data) for OSIntNesting
    os_mutex.o(.text) refers to os_core.o(.bss) for OSTCBPrioTbl
    os_q.o(.text) refers to os_cpu_a.o(.text) for OS_CPU_SR_Save
    os_q.o(.text) refers to os_core.o(.text) for OS_EventWaitListInit
    os_q.o(.text) refers to os_core.o(.data) for OSIntNesting
    os_q.o(.text) refers to os_core.o(.bss) for OSQTbl
    os_sem.o(.text) refers to _printf_percent.o(.ARM.Collect$$_printf_percent$$00000000) for _printf_percent
    os_sem.o(.text) refers to _printf_s.o(.ARM.Collect$$_printf_percent$$00000014) for _printf_s
    os_sem.o(.text) refers to _printf_str.o(.text) for _printf_str
    os_sem.o(.text) refers to os_cpu_a.o(.text) for OS_CPU_SR_Save
    os_sem.o(.text) refers to os_core.o(.text) for OS_EventWaitListInit
    os_sem.o(.text) refers to noretval__2printf.o(.text) for __2printf
    os_sem.o(.text) refers to os_core.o(.data) for OSIntNesting
    os_task.o(.text) refers to os_cpu_a.o(.text) for OS_CPU_SR_Save
    os_task.o(.text) refers to os_core.o(.text) for OS_Sched
    os_task.o(.text) refers to os_cpu_c.o(.text) for OSTaskStkInit
    os_task.o(.text) refers to os_flag.o(.text) for OS_FlagUnlink
    os_task.o(.text) refers to os_core.o(.bss) for OSTCBPrioTbl
    os_task.o(.text) refers to os_core.o(.data) for OSTCBCur
    os_time.o(.text) refers to os_cpu_a.o(.text) for OS_CPU_SR_Save
    os_time.o(.text) refers to os_core.o(.text) for OS_Sched
    os_time.o(.text) refers to os_core.o(.data) for OSIntNesting
    os_time.o(.text) refers to os_core.o(.bss) for OSTCBPrioTbl
    os_tmr.o(.text) refers to os_core.o(.text) for OSSchedLock
    os_tmr.o(.text) refers to os_core.o(.data) for OSTmrFreeList
    os_tmr.o(.text) refers to os_core.o(.bss) for OSTmrWheelTbl
    os_tmr.o(.text) refers to os_sem.o(.text) for OSSemPost
    os_tmr.o(.text) refers to os_task.o(.text) for OSTaskCreateExt
    os_cpu_c.o(.text) refers to os_tmr.o(.text) for OSTmrSignal
    os_cpu_c.o(.text) refers to os_cpu_c.o(.data) for OSTmrCtr
    os_cpu_c.o(.text) refers to os_task.o(.text) for OS_TaskReturn
    os_cpu_a.o(.text) refers to os_core.o(.data) for OSRunning
    os_cpu_a.o(.text) refers to os_cpu_c.o(.text) for OSTaskSwHook
    malloc.o(.text) refers to malloc.o(.constdata) for memtblsize
    malloc.o(.text) refers to malloc.o(.data) for mallco_dev
    malloc.o(.data) refers to malloc.o(.text) for mymem_init
    malloc.o(.data) refers to malloc.o(.bss) for mem1base
    malloc.o(.data) refers to malloc.o(.ARM.__AT_0x68000000) for mem2base
    malloc.o(.data) refers to malloc.o(.ARM.__AT_0x10000000) for mem3base
    malloc.o(.data) refers to malloc.o(.ARM.__AT_0x680F0000) for mem2mapbase
    malloc.o(.data) refers to malloc.o(.ARM.__AT_0x1000F000) for mem3mapbase
    bmp.o(.text) refers to piclib.o(.text) for pic_memalloc
    bmp.o(.text) refers to ff.o(.text) for f_open
    bmp.o(.text) refers to piclib.o(.bss) for picinfo
    bmp.o(.text) refers to malloc.o(.text) for mymemset
    bmp.o(.text) refers to lcd.o(.text) for LCD_ReadPoint
    bmp.o(.text) refers to lcd.o(.bss) for lcddev
    bmp.o(.text) refers to exfuns.o(.data) for bw
    gif.o(.text) refers to ff.o(.text) for f_read
    gif.o(.text) refers to malloc.o(.text) for mymemset
    gif.o(.text) refers to gif.o(.constdata) for _aMaskTbl
    gif.o(.text) refers to piclib.o(.bss) for pic_phy
    gif.o(.text) refers to piclib.o(.text) for pic_memalloc
    gif.o(.text) refers to delay.o(.text) for delay_ms
    gif.o(.text) refers to gif.o(.data) for gifdecoding
    piclib.o(.text) refers to lcd.o(.text) for LCD_Fill
    piclib.o(.text) refers to exfuns.o(.text) for f_typetell
    piclib.o(.text) refers to bmp.o(.text) for stdbmp_decode
    piclib.o(.text) refers to tjpgd.o(.text) for jpg_decode
    piclib.o(.text) refers to gif.o(.text) for gif_decode
    piclib.o(.text) refers to malloc.o(.text) for mymalloc
    piclib.o(.text) refers to lcd.o(.bss) for lcddev
    piclib.o(.text) refers to piclib.o(.bss) for pic_phy
    tjpgd.o(.text) refers to tjpgd.o(.constdata) for Zig
    tjpgd.o(.text) refers to piclib.o(.text) for pic_memalloc
    tjpgd.o(.text) refers to ff.o(.text) for f_read
    tjpgd.o(.text) refers to tjpgd.o(.data) for f_jpeg
    tjpgd.o(.text) refers to piclib.o(.bss) for picinfo
    diskio.o(.text) refers to sdio_sdcard.o(.text) for SD_Init
    diskio.o(.text) refers to w25qxx.o(.text) for W25QXX_Init
    diskio.o(.text) refers to llsdiv.o(.text) for __aeabi_ldivmod
    diskio.o(.text) refers to malloc.o(.text) for mymalloc
    diskio.o(.text) refers to diskio.o(.data) for FLASH_SECTOR_COUNT
    diskio.o(.text) refers to sdio_sdcard.o(.bss) for SDCardInfo
    ff.o(.text) refers to diskio.o(.text) for disk_write
    ff.o(.text) refers to mycc936.o(.text) for ff_wtoupper
    ff.o(.text) refers to ff.o(.constdata) for LfnOfs
    ff.o(.text) refers to ff.o(.bss) for FatFs
    ff.o(.text) refers to ff.o(.data) for Fsid
    exfuns.o(.text) refers to malloc.o(.text) for mymalloc
    exfuns.o(.text) refers to strcpy.o(.text) for strcpy
    exfuns.o(.text) refers to strcmpv7m.o(.text) for strcmp
    exfuns.o(.text) refers to ff.o(.text) for f_getfree
    exfuns.o(.text) refers to exfuns.o(.bss) for fs
    exfuns.o(.text) refers to exfuns.o(.data) for file
    exfuns.o(.text) refers to exfuns.o(.constdata) for FILE_TYPE_TBL
    exfuns.o(.constdata) refers to exfuns.o(.conststring) for .conststring
    fattester.o(.text) refers to _printf_percent.o(.ARM.Collect$$_printf_percent$$00000000) for _printf_percent
    fattester.o(.text) refers to _printf_d.o(.ARM.Collect$$_printf_percent$$00000009) for _printf_d
    fattester.o(.text) refers to _printf_dec.o(.text) for _printf_int_dec
    fattester.o(.text) refers to _printf_c.o(.ARM.Collect$$_printf_percent$$00000013) for _printf_c
    fattester.o(.text) refers to _printf_str.o(.text) for _printf_str
    fattester.o(.text) refers to _printf_s.o(.ARM.Collect$$_printf_percent$$00000014) for _printf_s
    fattester.o(.text) refers to _printf_x.o(.ARM.Collect$$_printf_percent$$0000000C) for _printf_x
    fattester.o(.text) refers to _printf_hex_int.o(.text) for _printf_longlong_hex
    fattester.o(.text) refers to ff.o(.text) for f_mount
    fattester.o(.text) refers to noretval__2printf.o(.text) for __2printf
    fattester.o(.text) refers to malloc.o(.text) for mymalloc
    fattester.o(.text) refers to exfuns.o(.bss) for fs
    fattester.o(.text) refers to exfuns.o(.data) for file
    mycc936.o(.text) refers to w25qxx.o(.text) for W25QXX_Read
    mycc936.o(.text) refers to fontupd.o(.bss) for ftinfo
    mycc936.o(.text) refers to mycc936.o(.constdata) for tbl_lower
    fontupd.o(.text) refers to lcd.o(.text) for LCD_ShowString
    fontupd.o(.text) refers to malloc.o(.text) for mymalloc
    fontupd.o(.text) refers to ff.o(.text) for f_open
    fontupd.o(.text) refers to w25qxx.o(.text) for W25QXX_Write
    fontupd.o(.text) refers to strcpy.o(.text) for strcpy
    fontupd.o(.text) refers to strcat.o(.text) for strcat
    fontupd.o(.text) refers to fontupd.o(.bss) for ftinfo
    fontupd.o(.text) refers to fontupd.o(.constdata) for UNIGBK_PATH
    fontupd.o(.text) refers to delay.o(.text) for delay_ms
    fontupd.o(.constdata) refers to fontupd.o(.conststring) for .conststring
    text.o(.text) refers to w25qxx.o(.text) for W25QXX_Read
    text.o(.text) refers to lcd.o(.text) for LCD_Fast_DrawPoint
    text.o(.text) refers to strlen.o(.text) for strlen
    text.o(.text) refers to fontupd.o(.bss) for ftinfo
    text.o(.text) refers to lcd.o(.data) for POINT_COLOR
    text.o(.text) refers to lcd.o(.bss) for lcddev
    use_no_semi_2.o(.text) refers (Special) to use_no_semi.o(.text) for __use_no_semihosting_swi
    rt_ctype_table.o(.text) refers to rt_locale_intlibspace.o(.text) for __rt_locale
    rt_ctype_table.o(.text) refers to lc_ctype_c.o(locale$$code) for _get_lc_ctype
    llsdiv.o(.text) refers to lludivv7m.o(.text) for __aeabi_uldivmod
    __2printf.o(.text) refers to _printf_char_file.o(.text) for _printf_char_file
    __2printf.o(.text) refers to usart.o(.data) for __stdout
    __2sprintf.o(.text) refers to _printf_char_common.o(.text) for _printf_char_common
    __2sprintf.o(.text) refers to _sputc.o(.text) for _sputc
    noretval__2printf.o(.text) refers to _printf_char_file.o(.text) for _printf_char_file
    noretval__2printf.o(.text) refers to usart.o(.data) for __stdout
    noretval__2sprintf.o(.text) refers to _printf_char_common.o(.text) for _printf_char_common
    noretval__2sprintf.o(.text) refers to _sputc.o(.text) for _sputc
    __printf.o(.text) refers to _printf_percent.o(.ARM.Collect$$_printf_percent$$00000000) for _printf_percent
    _printf_str.o(.text) refers (Special) to _printf_char.o(.text) for _printf_cs_common
    _printf_str.o(.text) refers (Weak) to _printf_pad.o(.text) for _printf_pre_padding
    _printf_str.o(.text) refers (Weak) to _printf_pad.o(.text) for _printf_post_padding
    _printf_dec.o(.text) refers to _printf_intcommon.o(.text) for _printf_int_common
    _printf_hex_ll.o(.text) refers to _printf_intcommon.o(.text) for _printf_int_common
    _printf_hex_ll.o(.text) refers to _printf_hex_ll.o(.constdata) for .constdata
    _printf_hex_int.o(.text) refers to _printf_intcommon.o(.text) for _printf_int_common
    _printf_hex_int.o(.text) refers to _printf_hex_int.o(.constdata) for .constdata
    _printf_hex_int_ll.o(.text) refers to _printf_intcommon.o(.text) for _printf_int_common
    _printf_hex_int_ll.o(.text) refers to _printf_hex_int_ll.o(.constdata) for .constdata
    _printf_hex_ptr.o(.text) refers to _printf_intcommon.o(.text) for _printf_int_common
    _printf_hex_ptr.o(.text) refers to _printf_hex_ptr.o(.constdata) for .constdata
    _printf_hex_int_ptr.o(.text) refers to _printf_intcommon.o(.text) for _printf_int_common
    _printf_hex_int_ptr.o(.text) refers to _printf_hex_int_ptr.o(.constdata) for .constdata
    _printf_hex_ll_ptr.o(.text) refers to _printf_intcommon.o(.text) for _printf_int_common
    _printf_hex_ll_ptr.o(.text) refers to _printf_hex_ll_ptr.o(.constdata) for .constdata
    _printf_hex_int_ll_ptr.o(.text) refers to _printf_intcommon.o(.text) for _printf_int_common
    _printf_hex_int_ll_ptr.o(.text) refers to _printf_hex_int_ll_ptr.o(.constdata) for .constdata
    __printf_flags.o(.text) refers to _printf_percent.o(.ARM.Collect$$_printf_percent$$00000000) for _printf_percent
    __printf_flags.o(.text) refers to __printf_flags.o(.constdata) for .constdata
    __printf_ss.o(.text) refers to _printf_percent.o(.ARM.Collect$$_printf_percent$$00000000) for _printf_percent
    __printf_flags_ss.o(.text) refers to _printf_percent.o(.ARM.Collect$$_printf_percent$$00000000) for _printf_percent
    __printf_flags_ss.o(.text) refers to __printf_flags_ss.o(.constdata) for .constdata
    __printf_wp.o(.text) refers to __printf_wp.o(i._is_digit) for _is_digit
    __printf_wp.o(.text) refers to _printf_percent.o(.ARM.Collect$$_printf_percent$$00000000) for _printf_percent
    __printf_flags_wp.o(.text) refers to __printf_wp.o(i._is_digit) for _is_digit
    __printf_flags_wp.o(.text) refers to _printf_percent.o(.ARM.Collect$$_printf_percent$$00000000) for _printf_percent
    __printf_flags_wp.o(.text) refers to __printf_flags_wp.o(.constdata) for .constdata
    __printf_ss_wp.o(.text) refers to __printf_wp.o(i._is_digit) for _is_digit
    __printf_ss_wp.o(.text) refers to _printf_percent.o(.ARM.Collect$$_printf_percent$$00000000) for _printf_percent
    __printf_flags_ss_wp.o(.text) refers to __printf_wp.o(i._is_digit) for _is_digit
    __printf_flags_ss_wp.o(.text) refers to _printf_percent.o(.ARM.Collect$$_printf_percent$$00000000) for _printf_percent
    __printf_flags_ss_wp.o(.text) refers to __printf_flags_ss_wp.o(.constdata) for .constdata
    _printf_c.o(.ARM.Collect$$_printf_percent$$00000013) refers (Weak) to _printf_char.o(.text) for _printf_char
    _printf_s.o(.ARM.Collect$$_printf_percent$$00000014) refers (Weak) to _printf_char.o(.text) for _printf_string
    _printf_x.o(.ARM.Collect$$_printf_percent$$0000000C) refers (Weak) to _printf_hex_int.o(.text) for _printf_int_hex
    _printf_d.o(.ARM.Collect$$_printf_percent$$00000009) refers (Weak) to _printf_dec.o(.text) for _printf_int_dec
    _printf_u.o(.ARM.Collect$$_printf_percent$$0000000A) refers (Weak) to _printf_dec.o(.text) for _printf_int_dec
    _printf_percent.o(.ARM.Collect$$_printf_percent$$00000000) refers (Special) to _printf_percent_end.o(.ARM.Collect$$_printf_percent$$00000017) for _printf_percent_end
    rt_memcpy_v6.o(.text) refers to rt_memcpy_w.o(.text) for __aeabi_memcpy4
    rt_memclr.o(.text) refers to rt_memclr_w.o(.text) for _memset_w
    __main.o(!!!main) refers to __rtentry.o(.ARM.Collect$$rtentry$$00000000) for __rt_entry
    dfixu.o(x$fpl$dfixu) refers (Special) to usenofp.o(x$fpl$usenofp) for __I$use$fp
    dfixu.o(x$fpl$dfixu) refers to dnaninf.o(x$fpl$dnaninf) for __fpl_dnaninf
    dfixu.o(x$fpl$dfixur) refers (Special) to usenofp.o(x$fpl$usenofp) for __I$use$fp
    dfixu.o(x$fpl$dfixur) refers to dnaninf.o(x$fpl$dnaninf) for __fpl_dnaninf
    dflt_clz.o(x$fpl$dfltu) refers (Special) to usenofp.o(x$fpl$usenofp) for __I$use$fp
    dflt_clz.o(x$fpl$dflt) refers (Special) to usenofp.o(x$fpl$usenofp) for __I$use$fp
    dflt_clz.o(x$fpl$dfltn) refers (Special) to usenofp.o(x$fpl$usenofp) for __I$use$fp
    dmul.o(x$fpl$dmul) refers (Special) to usenofp.o(x$fpl$usenofp) for __I$use$fp
    dmul.o(x$fpl$dmul) refers to dretinf.o(x$fpl$dretinf) for __fpl_dretinf
    dmul.o(x$fpl$dmul) refers to dnaninf.o(x$fpl$dnaninf) for __fpl_dnaninf
    __rtentry.o(.ARM.Collect$$rtentry$$00000000) refers (Special) to __rtentry2.o(.ARM.Collect$$rtentry$$0000000A) for __rt_entry_li
    __rtentry.o(.ARM.Collect$$rtentry$$00000000) refers (Special) to __rtentry2.o(.ARM.Collect$$rtentry$$0000000D) for __rt_entry_main
    __rtentry.o(.ARM.Collect$$rtentry$$00000000) refers (Special) to __rtentry2.o(.ARM.Collect$$rtentry$$0000000C) for __rt_entry_postli_1
    __rtentry.o(.ARM.Collect$$rtentry$$00000000) refers (Special) to __rtentry2.o(.ARM.Collect$$rtentry$$00000009) for __rt_entry_postsh_1
    __rtentry.o(.ARM.Collect$$rtentry$$00000000) refers (Special) to __rtentry2.o(.ARM.Collect$$rtentry$$00000002) for __rt_entry_presh_1
    __rtentry.o(.ARM.Collect$$rtentry$$00000000) refers (Special) to __rtentry4.o(.ARM.Collect$$rtentry$$00000004) for __rt_entry_sh
    rt_locale.o(.text) refers to rt_locale.o(.bss) for __rt_locale_data
    rt_locale_intlibspace.o(.text) refers to libspace.o(.bss) for __libspace_start
    _printf_intcommon.o(.text) refers (Weak) to _printf_pad.o(.text) for _printf_pre_padding
    _printf_intcommon.o(.text) refers (Weak) to _printf_pad.o(.text) for _printf_pre_padding
    _printf_intcommon.o(.text) refers (Weak) to _printf_pad.o(.text) for _printf_post_padding
    _printf_char_common.o(.text) refers to __printf_flags_ss_wp.o(.text) for __printf
    _printf_char.o(.text) refers (Weak) to _printf_str.o(.text) for _printf_str
    _printf_char_file.o(.text) refers to _printf_char_common.o(.text) for _printf_char_common
    _printf_char_file.o(.text) refers to ferror.o(.text) for ferror
    _printf_char_file.o(.text) refers to usart.o(.text) for fputc
    lc_ctype_c.o(locale$$data) refers (Special) to libinit2.o(.ARM.Collect$$libinit$$00000012) for __rt_lib_init_lc_ctype_2
    lc_ctype_c.o(locale$$code) refers (Special) to libinit2.o(.ARM.Collect$$libinit$$00000012) for __rt_lib_init_lc_ctype_2
    lc_ctype_c.o(locale$$code) refers to strcmpv7m.o(.text) for strcmp
    lc_ctype_c.o(locale$$code) refers to lc_ctype_c.o(locale$$data) for __lcctype_c_name
    dnaninf.o(x$fpl$dnaninf) refers (Special) to usenofp.o(x$fpl$usenofp) for __I$use$fp
    dretinf.o(x$fpl$dretinf) refers (Special) to usenofp.o(x$fpl$usenofp) for __I$use$fp
    libspace.o(.text) refers to libspace.o(.bss) for __libspace_start
    __rtentry2.o(.ARM.Collect$$rtentry$$00000008) refers to boardinit2.o(.text) for _platform_post_stackheap_init
    __rtentry2.o(.ARM.Collect$$rtentry$$0000000A) refers to libinit.o(.ARM.Collect$$libinit$$00000000) for __rt_lib_init
    __rtentry2.o(.ARM.Collect$$rtentry$$0000000B) refers to boardinit3.o(.text) for _platform_post_lib_init
    __rtentry2.o(.ARM.Collect$$rtentry$$0000000D) refers to main.o(.text) for main
    __rtentry2.o(.ARM.Collect$$rtentry$$0000000D) refers to exit.o(.text) for exit
    __rtentry2.o(.ARM.exidx) refers to __rtentry2.o(.ARM.Collect$$rtentry$$00000001) for .ARM.Collect$$rtentry$$00000001
    __rtentry2.o(.ARM.exidx) refers to __rtentry2.o(.ARM.Collect$$rtentry$$00000008) for .ARM.Collect$$rtentry$$00000008
    __rtentry2.o(.ARM.exidx) refers to __rtentry2.o(.ARM.Collect$$rtentry$$0000000A) for .ARM.Collect$$rtentry$$0000000A
    __rtentry2.o(.ARM.exidx) refers to __rtentry2.o(.ARM.Collect$$rtentry$$0000000B) for .ARM.Collect$$rtentry$$0000000B
    __rtentry2.o(.ARM.exidx) refers to __rtentry2.o(.ARM.Collect$$rtentry$$0000000D) for .ARM.Collect$$rtentry$$0000000D
    __rtentry4.o(.ARM.Collect$$rtentry$$00000004) refers to sys_stackheap_outer.o(.text) for __user_setup_stackheap
    __rtentry4.o(.ARM.exidx) refers to __rtentry4.o(.ARM.Collect$$rtentry$$00000004) for .ARM.Collect$$rtentry$$00000004
    aeabi_ldiv0_sigfpe.o(.text) refers to rt_div0.o(.text) for __rt_div0
    libinit2.o(.ARM.Collect$$libinit$$00000001) refers to fpinit.o(x$fpl$fpinit) for _fp_init
    libinit2.o(.ARM.Collect$$libinit$$0000000F) refers (Weak) to rt_locale_intlibspace.o(.text) for __rt_locale
    libinit2.o(.ARM.Collect$$libinit$$00000010) refers to libinit2.o(.ARM.Collect$$libinit$$0000000F) for .ARM.Collect$$libinit$$0000000F
    libinit2.o(.ARM.Collect$$libinit$$00000012) refers to libinit2.o(.ARM.Collect$$libinit$$0000000F) for .ARM.Collect$$libinit$$0000000F
    libinit2.o(.ARM.Collect$$libinit$$00000012) refers (Weak) to lc_ctype_c.o(locale$$code) for _get_lc_ctype
    libinit2.o(.ARM.Collect$$libinit$$00000014) refers to libinit2.o(.ARM.Collect$$libinit$$0000000F) for .ARM.Collect$$libinit$$0000000F
    libinit2.o(.ARM.Collect$$libinit$$00000016) refers to libinit2.o(.ARM.Collect$$libinit$$0000000F) for .ARM.Collect$$libinit$$0000000F
    libinit2.o(.ARM.Collect$$libinit$$00000018) refers to libinit2.o(.ARM.Collect$$libinit$$0000000F) for .ARM.Collect$$libinit$$0000000F
    libinit2.o(.ARM.Collect$$libinit$$00000026) refers to argv_veneer.o(.emb_text) for __ARM_argv_veneer
    libinit2.o(.ARM.Collect$$libinit$$00000027) refers to argv_veneer.o(.emb_text) for __ARM_argv_veneer
    sys_stackheap_outer.o(.text) refers to libspace.o(.text) for __user_perproc_libspace
    sys_stackheap_outer.o(.text) refers to startup_stm32f40_41xxx.o(.text) for __user_initial_stackheap
    rt_div0.o(.text) refers to defsig_fpe_outer.o(.text) for __rt_SIGFPE
    exit.o(.text) refers to rtexit.o(.ARM.Collect$$rtexit$$00000000) for __rt_exit
    argv_veneer.o(.emb_text) refers to no_argv.o(.text) for __ARM_get_argv
    libinit.o(.ARM.Collect$$libinit$$00000000) refers (Special) to libinit2.o(.ARM.Collect$$libinit$$0000002E) for __rt_lib_init_alloca_1
    libinit.o(.ARM.Collect$$libinit$$00000000) refers (Special) to libinit2.o(.ARM.Collect$$libinit$$0000002C) for __rt_lib_init_argv_1
    libinit.o(.ARM.Collect$$libinit$$00000000) refers (Special) to libinit2.o(.ARM.Collect$$libinit$$0000001B) for __rt_lib_init_atexit_1
    libinit.o(.ARM.Collect$$libinit$$00000000) refers (Special) to libinit2.o(.ARM.Collect$$libinit$$00000021) for __rt_lib_init_clock_1
    libinit.o(.ARM.Collect$$libinit$$00000000) refers (Special) to libinit2.o(.ARM.Collect$$libinit$$00000032) for __rt_lib_init_cpp_1
    libinit.o(.ARM.Collect$$libinit$$00000000) refers (Special) to libinit2.o(.ARM.Collect$$libinit$$00000030) for __rt_lib_init_exceptions_1
    libinit.o(.ARM.Collect$$libinit$$00000000) refers (Special) to libinit2.o(.ARM.Collect$$libinit$$00000001) for __rt_lib_init_fp_1
    libinit.o(.ARM.Collect$$libinit$$00000000) refers (Special) to libinit2.o(.ARM.Collect$$libinit$$0000001F) for __rt_lib_init_fp_trap_1
    libinit.o(.ARM.Collect$$libinit$$00000000) refers (Special) to libinit2.o(.ARM.Collect$$libinit$$00000023) for __rt_lib_init_getenv_1
    libinit.o(.ARM.Collect$$libinit$$00000000) refers (Special) to libinit2.o(.ARM.Collect$$libinit$$0000000A) for __rt_lib_init_heap_1
    libinit.o(.ARM.Collect$$libinit$$00000000) refers (Special) to libinit2.o(.ARM.Collect$$libinit$$00000011) for __rt_lib_init_lc_collate_1
    libinit.o(.ARM.Collect$$libinit$$00000000) refers (Special) to libinit2.o(.ARM.Collect$$libinit$$00000013) for __rt_lib_init_lc_ctype_1
    libinit.o(.ARM.Collect$$libinit$$00000000) refers (Special) to libinit2.o(.ARM.Collect$$libinit$$00000015) for __rt_lib_init_lc_monetary_1
    libinit.o(.ARM.Collect$$libinit$$00000000) refers (Special) to libinit2.o(.ARM.Collect$$libinit$$00000017) for __rt_lib_init_lc_numeric_1
    libinit.o(.ARM.Collect$$libinit$$00000000) refers (Special) to libinit2.o(.ARM.Collect$$libinit$$00000019) for __rt_lib_init_lc_time_1
    libinit.o(.ARM.Collect$$libinit$$00000000) refers (Special) to libinit2.o(.ARM.Collect$$libinit$$00000004) for __rt_lib_init_preinit_1
    libinit.o(.ARM.Collect$$libinit$$00000000) refers (Special) to libinit2.o(.ARM.Collect$$libinit$$0000000E) for __rt_lib_init_rand_1
    libinit.o(.ARM.Collect$$libinit$$00000000) refers (Special) to libinit2.o(.ARM.Collect$$libinit$$00000033) for __rt_lib_init_return
    libinit.o(.ARM.Collect$$libinit$$00000000) refers (Special) to libinit2.o(.ARM.Collect$$libinit$$0000001D) for __rt_lib_init_signal_1
    libinit.o(.ARM.Collect$$libinit$$00000000) refers (Special) to libinit2.o(.ARM.Collect$$libinit$$00000025) for __rt_lib_init_stdio_1
    libinit.o(.ARM.Collect$$libinit$$00000000) refers (Special) to libinit2.o(.ARM.Collect$$libinit$$0000000C) for __rt_lib_init_user_alloc_1
    rtexit.o(.ARM.Collect$$rtexit$$00000000) refers (Special) to rtexit2.o(.ARM.Collect$$rtexit$$00000004) for __rt_exit_exit
    rtexit.o(.ARM.Collect$$rtexit$$00000000) refers (Special) to rtexit2.o(.ARM.Collect$$rtexit$$00000003) for __rt_exit_ls
    rtexit.o(.ARM.Collect$$rtexit$$00000000) refers (Special) to rtexit2.o(.ARM.Collect$$rtexit$$00000002) for __rt_exit_prels_1
    rtexit.o(.ARM.exidx) refers (Special) to rtexit2.o(.ARM.Collect$$rtexit$$00000004) for __rt_exit_exit
    rtexit.o(.ARM.exidx) refers (Special) to rtexit2.o(.ARM.Collect$$rtexit$$00000003) for __rt_exit_ls
    rtexit.o(.ARM.exidx) refers (Special) to rtexit2.o(.ARM.Collect$$rtexit$$00000002) for __rt_exit_prels_1
    rtexit.o(.ARM.exidx) refers to rtexit.o(.ARM.Collect$$rtexit$$00000000) for .ARM.Collect$$rtexit$$00000000
    defsig_fpe_outer.o(.text) refers to defsig_fpe_inner.o(.text) for __rt_SIGFPE_inner
    defsig_fpe_outer.o(.text) refers to defsig_exit.o(.text) for __sig_exit
    defsig_fpe_formal.o(.text) refers to rt_raise.o(.text) for __rt_raise
    _get_argv_nomalloc.o(.text) refers (Special) to hrguard.o(.text) for __heap_region$guard
    _get_argv_nomalloc.o(.text) refers to defsig_rtmem_outer.o(.text) for __rt_SIGRTMEM
    _get_argv_nomalloc.o(.text) refers to sys_command.o(.text) for _sys_command_string
    sys_command.o(.text) refers (Special) to use_no_semi.o(.text) for __I$use$semihosting
    sys_command.o(.text) refers (Special) to indicate_semi.o(.text) for __semihosting_library_function
    rtexit2.o(.ARM.Collect$$rtexit$$00000003) refers to libshutdown.o(.ARM.Collect$$libshutdown$$00000000) for __rt_lib_shutdown
    rtexit2.o(.ARM.Collect$$rtexit$$00000004) refers to usart.o(.text) for _sys_exit
    rtexit2.o(.ARM.exidx) refers to rtexit2.o(.ARM.Collect$$rtexit$$00000001) for .ARM.Collect$$rtexit$$00000001
    rtexit2.o(.ARM.exidx) refers to rtexit2.o(.ARM.Collect$$rtexit$$00000003) for .ARM.Collect$$rtexit$$00000003
    rtexit2.o(.ARM.exidx) refers to rtexit2.o(.ARM.Collect$$rtexit$$00000004) for .ARM.Collect$$rtexit$$00000004
    rt_raise.o(.text) refers to __raise.o(.text) for __raise
    rt_raise.o(.text) refers to usart.o(.text) for _sys_exit
    defsig_exit.o(.text) refers to usart.o(.text) for _sys_exit
    defsig_fpe_inner.o(.text) refers to defsig_general.o(.text) for __default_signal_display
    defsig_rtmem_outer.o(.text) refers to defsig_rtmem_inner.o(.text) for __rt_SIGRTMEM_inner
    defsig_rtmem_outer.o(.text) refers to defsig_exit.o(.text) for __sig_exit
    defsig_rtmem_formal.o(.text) refers to rt_raise.o(.text) for __rt_raise
    __raise.o(.text) refers to defsig.o(CL$$defsig) for __default_signal_handler
    defsig_general.o(.text) refers to sys_wrch.o(.text) for _ttywrch
    defsig_rtmem_inner.o(.text) refers to defsig_general.o(.text) for __default_signal_display
    libshutdown.o(.ARM.Collect$$libshutdown$$00000000) refers (Special) to libshutdown2.o(.ARM.Collect$$libshutdown$$00000006) for __rt_lib_shutdown_fp_trap_1
    libshutdown.o(.ARM.Collect$$libshutdown$$00000000) refers (Special) to libshutdown2.o(.ARM.Collect$$libshutdown$$0000000E) for __rt_lib_shutdown_heap_1
    libshutdown.o(.ARM.Collect$$libshutdown$$00000000) refers (Special) to libshutdown2.o(.ARM.Collect$$libshutdown$$0000000F) for __rt_lib_shutdown_return
    libshutdown.o(.ARM.Collect$$libshutdown$$00000000) refers (Special) to libshutdown2.o(.ARM.Collect$$libshutdown$$00000009) for __rt_lib_shutdown_signal_1
    libshutdown.o(.ARM.Collect$$libshutdown$$00000000) refers (Special) to libshutdown2.o(.ARM.Collect$$libshutdown$$00000003) for __rt_lib_shutdown_stdio_1
    libshutdown.o(.ARM.Collect$$libshutdown$$00000000) refers (Special) to libshutdown2.o(.ARM.Collect$$libshutdown$$0000000B) for __rt_lib_shutdown_user_alloc_1
    sys_wrch.o(.text) refers (Special) to use_no_semi.o(.text) for __I$use$semihosting
    sys_wrch.o(.text) refers (Special) to indicate_semi.o(.text) for __semihosting_library_function
    defsig.o(CL$$defsig) refers to defsig_fpe_inner.o(.text) for __rt_SIGFPE_inner
    defsig.o(CL$$defsig) refers to defsig_rtmem_inner.o(.text) for __rt_SIGRTMEM_inner
    defsig_abrt_inner.o(.text) refers to defsig_general.o(.text) for __default_signal_display
    defsig_rtred_inner.o(.text) refers to defsig_general.o(.text) for __default_signal_display
    defsig_stak_inner.o(.text) refers to defsig_general.o(.text) for __default_signal_display
    defsig_pvfn_inner.o(.text) refers to defsig_general.o(.text) for __default_signal_display
    defsig_cppl_inner.o(.text) refers to defsig_general.o(.text) for __default_signal_display
    defsig_segv_inner.o(.text) refers to defsig_general.o(.text) for __default_signal_display
    defsig_other.o(.text) refers to defsig_general.o(.text) for __default_signal_display


==============================================================================

Removing Unused input sections from the image.

    Removing main.o(.rev16_text), (4 bytes).
    Removing main.o(.revsh_text), (4 bytes).
    Removing stm32f4xx_it.o(.rev16_text), (4 bytes).
    Removing stm32f4xx_it.o(.revsh_text), (4 bytes).
    Removing system_stm32f4xx.o(.rev16_text), (4 bytes).
    Removing system_stm32f4xx.o(.revsh_text), (4 bytes).
    Removing ihome_function.o(.rev16_text), (4 bytes).
    Removing ihome_function.o(.revsh_text), (4 bytes).
    Removing camera.o(.rev16_text), (4 bytes).
    Removing camera.o(.revsh_text), (4 bytes).
    Removing key.o(.rev16_text), (4 bytes).
    Removing key.o(.revsh_text), (4 bytes).
    Removing key.o(.text), (260 bytes).
    Removing key.o(.data), (1 bytes).
    Removing led.o(.rev16_text), (4 bytes).
    Removing led.o(.revsh_text), (4 bytes).
    Removing timer.o(.rev16_text), (4 bytes).
    Removing timer.o(.revsh_text), (4 bytes).
    Removing lcd.o(.rev16_text), (4 bytes).
    Removing lcd.o(.revsh_text), (4 bytes).
    Removing lan8720.o(.rev16_text), (4 bytes).
    Removing lan8720.o(.revsh_text), (4 bytes).
    Removing sram.o(.rev16_text), (4 bytes).
    Removing sram.o(.revsh_text), (4 bytes).
    Removing dht11.o(.rev16_text), (4 bytes).
    Removing dht11.o(.revsh_text), (4 bytes).
    Removing lsens.o(.rev16_text), (4 bytes).
    Removing lsens.o(.revsh_text), (4 bytes).
    Removing adc3.o(.rev16_text), (4 bytes).
    Removing adc3.o(.revsh_text), (4 bytes).
    Removing pwm.o(.rev16_text), (4 bytes).
    Removing pwm.o(.revsh_text), (4 bytes).
    Removing beep.o(.rev16_text), (4 bytes).
    Removing beep.o(.revsh_text), (4 bytes).
    Removing dcmi.o(.rev16_text), (4 bytes).
    Removing dcmi.o(.revsh_text), (4 bytes).
    Removing ov2640.o(.rev16_text), (4 bytes).
    Removing ov2640.o(.revsh_text), (4 bytes).
    Removing sccb.o(.rev16_text), (4 bytes).
    Removing sccb.o(.revsh_text), (4 bytes).
    Removing w25qxx.o(.rev16_text), (4 bytes).
    Removing w25qxx.o(.revsh_text), (4 bytes).
    Removing sdio_sdcard.o(.rev16_text), (4 bytes).
    Removing sdio_sdcard.o(.revsh_text), (4 bytes).
    Removing spi.o(.rev16_text), (4 bytes).
    Removing spi.o(.revsh_text), (4 bytes).
    Removing misc.o(.rev16_text), (4 bytes).
    Removing misc.o(.revsh_text), (4 bytes).
    Removing stm32f4xx_gpio.o(.rev16_text), (4 bytes).
    Removing stm32f4xx_gpio.o(.revsh_text), (4 bytes).
    Removing stm32f4xx_rcc.o(.rev16_text), (4 bytes).
    Removing stm32f4xx_rcc.o(.revsh_text), (4 bytes).
    Removing stm32f4xx_syscfg.o(.rev16_text), (4 bytes).
    Removing stm32f4xx_syscfg.o(.revsh_text), (4 bytes).
    Removing stm32f4xx_tim.o(.rev16_text), (4 bytes).
    Removing stm32f4xx_tim.o(.revsh_text), (4 bytes).
    Removing stm32f4xx_usart.o(.rev16_text), (4 bytes).
    Removing stm32f4xx_usart.o(.revsh_text), (4 bytes).
    Removing stm32f4x7_eth.o(.rev16_text), (4 bytes).
    Removing stm32f4x7_eth.o(.revsh_text), (4 bytes).
    Removing stm32f4xx_adc.o(.rev16_text), (4 bytes).
    Removing stm32f4xx_adc.o(.revsh_text), (4 bytes).
    Removing stm32f4xx_fsmc.o(.rev16_text), (4 bytes).
    Removing stm32f4xx_fsmc.o(.revsh_text), (4 bytes).
    Removing stm32f4xx_dma.o(.rev16_text), (4 bytes).
    Removing stm32f4xx_dma.o(.revsh_text), (4 bytes).
    Removing stm32f4xx_dcmi.o(.rev16_text), (4 bytes).
    Removing stm32f4xx_dcmi.o(.revsh_text), (4 bytes).
    Removing stm32f4xx_spi.o(.rev16_text), (4 bytes).
    Removing stm32f4xx_spi.o(.revsh_text), (4 bytes).
    Removing stm32f4xx_sdio.o(.rev16_text), (4 bytes).
    Removing stm32f4xx_sdio.o(.revsh_text), (4 bytes).
    Removing delay.o(.rev16_text), (4 bytes).
    Removing delay.o(.revsh_text), (4 bytes).
    Removing sys.o(.rev16_text), (4 bytes).
    Removing sys.o(.revsh_text), (4 bytes).
    Removing usart.o(.rev16_text), (4 bytes).
    Removing usart.o(.revsh_text), (4 bytes).
    Removing usmart.o(.rev16_text), (4 bytes).
    Removing usmart.o(.revsh_text), (4 bytes).
    Removing usmart_config.o(.rev16_text), (4 bytes).
    Removing usmart_config.o(.revsh_text), (4 bytes).
    Removing usmart_str.o(.rev16_text), (4 bytes).
    Removing usmart_str.o(.revsh_text), (4 bytes).
    Removing lwip_comm.o(.rev16_text), (4 bytes).
    Removing lwip_comm.o(.revsh_text), (4 bytes).
    Removing tcp_server.o(.rev16_text), (4 bytes).
    Removing tcp_server.o(.revsh_text), (4 bytes).
    Removing tcp_client.o(.rev16_text), (4 bytes).
    Removing tcp_client.o(.revsh_text), (4 bytes).
    Removing etharp.o(.rev16_text), (4 bytes).
    Removing etharp.o(.revsh_text), (4 bytes).
    Removing ethernetif.o(.rev16_text), (4 bytes).
    Removing ethernetif.o(.revsh_text), (4 bytes).
    Removing autoip.o(.rev16_text), (4 bytes).
    Removing autoip.o(.revsh_text), (4 bytes).
    Removing icmp.o(.rev16_text), (4 bytes).
    Removing icmp.o(.revsh_text), (4 bytes).
    Removing igmp.o(.rev16_text), (4 bytes).
    Removing igmp.o(.revsh_text), (4 bytes).
    Removing inet.o(.rev16_text), (4 bytes).
    Removing inet.o(.revsh_text), (4 bytes).
    Removing inet_chksum.o(.rev16_text), (4 bytes).
    Removing inet_chksum.o(.revsh_text), (4 bytes).
    Removing ip.o(.rev16_text), (4 bytes).
    Removing ip.o(.revsh_text), (4 bytes).
    Removing ip_addr.o(.rev16_text), (4 bytes).
    Removing ip_addr.o(.revsh_text), (4 bytes).
    Removing ip_frag.o(.rev16_text), (4 bytes).
    Removing ip_frag.o(.revsh_text), (4 bytes).
    Removing def.o(.rev16_text), (4 bytes).
    Removing def.o(.revsh_text), (4 bytes).
    Removing dhcp.o(.rev16_text), (4 bytes).
    Removing dhcp.o(.revsh_text), (4 bytes).
    Removing dns.o(.rev16_text), (4 bytes).
    Removing dns.o(.revsh_text), (4 bytes).
    Removing init.o(.rev16_text), (4 bytes).
    Removing init.o(.revsh_text), (4 bytes).
    Removing memp.o(.rev16_text), (4 bytes).
    Removing memp.o(.revsh_text), (4 bytes).
    Removing netif.o(.rev16_text), (4 bytes).
    Removing netif.o(.revsh_text), (4 bytes).
    Removing pbuf.o(.rev16_text), (4 bytes).
    Removing pbuf.o(.revsh_text), (4 bytes).
    Removing raw.o(.rev16_text), (4 bytes).
    Removing raw.o(.revsh_text), (4 bytes).
    Removing stats.o(.rev16_text), (4 bytes).
    Removing stats.o(.revsh_text), (4 bytes).
    Removing tcp.o(.rev16_text), (4 bytes).
    Removing tcp.o(.revsh_text), (4 bytes).
    Removing tcp_in.o(.rev16_text), (4 bytes).
    Removing tcp_in.o(.revsh_text), (4 bytes).
    Removing tcp_out.o(.rev16_text), (4 bytes).
    Removing tcp_out.o(.revsh_text), (4 bytes).
    Removing timers.o(.rev16_text), (4 bytes).
    Removing timers.o(.revsh_text), (4 bytes).
    Removing udp.o(.rev16_text), (4 bytes).
    Removing udp.o(.revsh_text), (4 bytes).
    Removing mem.o(.rev16_text), (4 bytes).
    Removing mem.o(.revsh_text), (4 bytes).
    Removing sys_arch.o(.rev16_text), (4 bytes).
    Removing sys_arch.o(.revsh_text), (4 bytes).
    Removing api_lib.o(.rev16_text), (4 bytes).
    Removing api_lib.o(.revsh_text), (4 bytes).
    Removing api_msg.o(.rev16_text), (4 bytes).
    Removing api_msg.o(.revsh_text), (4 bytes).
    Removing err.o(.rev16_text), (4 bytes).
    Removing err.o(.revsh_text), (4 bytes).
    Removing err.o(.text), (16 bytes).
    Removing err.o(.conststring), (295 bytes).
    Removing err.o(.data), (64 bytes).
    Removing netbuf.o(.rev16_text), (4 bytes).
    Removing netbuf.o(.revsh_text), (4 bytes).
    Removing netdb.o(.rev16_text), (4 bytes).
    Removing netdb.o(.revsh_text), (4 bytes).
    Removing netifapi.o(.rev16_text), (4 bytes).
    Removing netifapi.o(.revsh_text), (4 bytes).
    Removing sockets.o(.rev16_text), (4 bytes).
    Removing sockets.o(.revsh_text), (4 bytes).
    Removing tcpip.o(.rev16_text), (4 bytes).
    Removing tcpip.o(.revsh_text), (4 bytes).
    Removing os_core.o(.rev16_text), (4 bytes).
    Removing os_core.o(.revsh_text), (4 bytes).
    Removing os_flag.o(.rev16_text), (4 bytes).
    Removing os_flag.o(.revsh_text), (4 bytes).
    Removing os_mbox.o(.rev16_text), (4 bytes).
    Removing os_mbox.o(.revsh_text), (4 bytes).
    Removing os_mbox.o(.text), (992 bytes).
    Removing os_mem.o(.rev16_text), (4 bytes).
    Removing os_mem.o(.revsh_text), (4 bytes).
    Removing os_mutex.o(.rev16_text), (4 bytes).
    Removing os_mutex.o(.revsh_text), (4 bytes).
    Removing os_mutex.o(.text), (1548 bytes).
    Removing os_q.o(.rev16_text), (4 bytes).
    Removing os_q.o(.revsh_text), (4 bytes).
    Removing os_sem.o(.rev16_text), (4 bytes).
    Removing os_sem.o(.revsh_text), (4 bytes).
    Removing os_task.o(.rev16_text), (4 bytes).
    Removing os_task.o(.revsh_text), (4 bytes).
    Removing os_time.o(.rev16_text), (4 bytes).
    Removing os_time.o(.revsh_text), (4 bytes).
    Removing os_tmr.o(.rev16_text), (4 bytes).
    Removing os_tmr.o(.revsh_text), (4 bytes).
    Removing os_cpu_c.o(.rev16_text), (4 bytes).
    Removing os_cpu_c.o(.revsh_text), (4 bytes).
    Removing malloc.o(.rev16_text), (4 bytes).
    Removing malloc.o(.revsh_text), (4 bytes).
    Removing bmp.o(.rev16_text), (4 bytes).
    Removing bmp.o(.revsh_text), (4 bytes).
    Removing bmp.o(.text), (2144 bytes).
    Removing gif.o(.rev16_text), (4 bytes).
    Removing gif.o(.revsh_text), (4 bytes).
    Removing gif.o(.text), (3744 bytes).
    Removing gif.o(.constdata), (40 bytes).
    Removing gif.o(.data), (1 bytes).
    Removing piclib.o(.rev16_text), (4 bytes).
    Removing piclib.o(.revsh_text), (4 bytes).
    Removing piclib.o(.text), (708 bytes).
    Removing piclib.o(.bss), (60 bytes).
    Removing tjpgd.o(.rev16_text), (4 bytes).
    Removing tjpgd.o(.revsh_text), (4 bytes).
    Removing tjpgd.o(.text), (4720 bytes).
    Removing tjpgd.o(.constdata), (1216 bytes).
    Removing tjpgd.o(.data), (12 bytes).
    Removing diskio.o(.rev16_text), (4 bytes).
    Removing diskio.o(.revsh_text), (4 bytes).
    Removing exfuns.o(.rev16_text), (4 bytes).
    Removing exfuns.o(.revsh_text), (4 bytes).
    Removing fattester.o(.rev16_text), (4 bytes).
    Removing fattester.o(.revsh_text), (4 bytes).
    Removing fattester.o(.text), (1736 bytes).
    Removing mycc936.o(.rev16_text), (4 bytes).
    Removing mycc936.o(.revsh_text), (4 bytes).
    Removing fontupd.o(.rev16_text), (4 bytes).
    Removing fontupd.o(.revsh_text), (4 bytes).
    Removing fontupd.o(.text), (1504 bytes).
    Removing fontupd.o(.constdata), (16 bytes).
    Removing fontupd.o(.conststring), (96 bytes).
    Removing text.o(.rev16_text), (4 bytes).
    Removing text.o(.revsh_text), (4 bytes).

220 unused section(s) (total 19973 bytes) removed from the image.

==============================================================================

Image Symbol Table

    Local Symbols

    Symbol Name                              Value     Ov Type        Size  Object(Section)

    ../clib/angel/boardlib.s                 0x00000000   Number         0  boardinit3.o ABSOLUTE
    ../clib/angel/boardlib.s                 0x00000000   Number         0  boardinit2.o ABSOLUTE
    ../clib/angel/boardlib.s                 0x00000000   Number         0  boardinit1.o ABSOLUTE
    ../clib/angel/boardlib.s                 0x00000000   Number         0  boardshut.o ABSOLUTE
    ../clib/angel/dczerorl2.s                0x00000000   Number         0  __dczerorl2.o ABSOLUTE
    ../clib/angel/handlers.s                 0x00000000   Number         0  __scatter_zi.o ABSOLUTE
    ../clib/angel/kernel.s                   0x00000000   Number         0  __rtentry.o ABSOLUTE
    ../clib/angel/kernel.s                   0x00000000   Number         0  rtexit2.o ABSOLUTE
    ../clib/angel/kernel.s                   0x00000000   Number         0  rtexit.o ABSOLUTE
    ../clib/angel/kernel.s                   0x00000000   Number         0  __rtentry2.o ABSOLUTE
    ../clib/angel/kernel.s                   0x00000000   Number         0  __rtentry4.o ABSOLUTE
    ../clib/angel/rt.s                       0x00000000   Number         0  rt_locale.o ABSOLUTE
    ../clib/angel/rt.s                       0x00000000   Number         0  rt_div0.o ABSOLUTE
    ../clib/angel/rt.s                       0x00000000   Number         0  rt_ctype_table.o ABSOLUTE
    ../clib/angel/rt.s                       0x00000000   Number         0  aeabi_ldiv0.o ABSOLUTE
    ../clib/angel/rt.s                       0x00000000   Number         0  rt_raise.o ABSOLUTE
    ../clib/angel/rt.s                       0x00000000   Number         0  aeabi_ldiv0_sigfpe.o ABSOLUTE
    ../clib/angel/rt.s                       0x00000000   Number         0  rt_locale_intlibspace.o ABSOLUTE
    ../clib/angel/scatter.s                  0x00000000   Number         0  __scatter.o ABSOLUTE
    ../clib/angel/startup.s                  0x00000000   Number         0  __main.o ABSOLUTE
    ../clib/angel/sys.s                      0x00000000   Number         0  indicate_semi.o ABSOLUTE
    ../clib/angel/sys.s                      0x00000000   Number         0  use_no_semi_2.o ABSOLUTE
    ../clib/angel/sys.s                      0x00000000   Number         0  libspace.o ABSOLUTE
    ../clib/angel/sys.s                      0x00000000   Number         0  sys_stackheap_outer.o ABSOLUTE
    ../clib/angel/sys.s                      0x00000000   Number         0  use_no_semi.o ABSOLUTE
    ../clib/angel/sysapp.c                   0x00000000   Number         0  sys_command.o ABSOLUTE
    ../clib/angel/sysapp.c                   0x00000000   Number         0  sys_wrch.o ABSOLUTE
    ../clib/armsys.c                         0x00000000   Number         0  no_argv.o ABSOLUTE
    ../clib/armsys.c                         0x00000000   Number         0  argv_veneer.o ABSOLUTE
    ../clib/armsys.c                         0x00000000   Number         0  argv_veneer.o ABSOLUTE
    ../clib/armsys.c                         0x00000000   Number         0  _get_argv_nomalloc.o ABSOLUTE
    ../clib/heapalloc.c                      0x00000000   Number         0  hrguard.o ABSOLUTE
    ../clib/heapaux.c                        0x00000000   Number         0  heapauxi.o ABSOLUTE
    ../clib/libinit.s                        0x00000000   Number         0  libshutdown.o ABSOLUTE
    ../clib/libinit.s                        0x00000000   Number         0  libinit2.o ABSOLUTE
    ../clib/libinit.s                        0x00000000   Number         0  libshutdown2.o ABSOLUTE
    ../clib/libinit.s                        0x00000000   Number         0  libinit.o ABSOLUTE
    ../clib/locale.s                         0x00000000   Number         0  lc_ctype_c.o ABSOLUTE
    ../clib/longlong.s                       0x00000000   Number         0  lludivv7m.o ABSOLUTE
    ../clib/longlong.s                       0x00000000   Number         0  llsdiv.o ABSOLUTE
    ../clib/memcpset.s                       0x00000000   Number         0  rt_memclr_w.o ABSOLUTE
    ../clib/memcpset.s                       0x00000000   Number         0  rt_memcpy_v6.o ABSOLUTE
    ../clib/memcpset.s                       0x00000000   Number         0  rt_memclr.o ABSOLUTE
    ../clib/memcpset.s                       0x00000000   Number         0  strcmpv7m.o ABSOLUTE
    ../clib/memcpset.s                       0x00000000   Number         0  rt_memcpy_w.o ABSOLUTE
    ../clib/misc.s                           0x00000000   Number         0  printf_stubs.o ABSOLUTE
    ../clib/printf.c                         0x00000000   Number         0  __printf_nopercent.o ABSOLUTE
    ../clib/printf.c                         0x00000000   Number         0  _printf_hex_int_ll.o ABSOLUTE
    ../clib/printf.c                         0x00000000   Number         0  _printf_hex_int_ll_ptr.o ABSOLUTE
    ../clib/printf.c                         0x00000000   Number         0  _printf_hex_int.o ABSOLUTE
    ../clib/printf.c                         0x00000000   Number         0  __printf_flags.o ABSOLUTE
    ../clib/printf.c                         0x00000000   Number         0  _printf_hex_ll.o ABSOLUTE
    ../clib/printf.c                         0x00000000   Number         0  __printf_ss.o ABSOLUTE
    ../clib/printf.c                         0x00000000   Number         0  __printf_flags_ss.o ABSOLUTE
    ../clib/printf.c                         0x00000000   Number         0  _printf_intcommon.o ABSOLUTE
    ../clib/printf.c                         0x00000000   Number         0  __printf_wp.o ABSOLUTE
    ../clib/printf.c                         0x00000000   Number         0  __printf_flags_wp.o ABSOLUTE
    ../clib/printf.c                         0x00000000   Number         0  _printf_char_common.o ABSOLUTE
    ../clib/printf.c                         0x00000000   Number         0  _printf_dec.o ABSOLUTE
    ../clib/printf.c                         0x00000000   Number         0  __printf_ss_wp.o ABSOLUTE
    ../clib/printf.c                         0x00000000   Number         0  _printf_str.o ABSOLUTE
    ../clib/printf.c                         0x00000000   Number         0  _printf_char_file.o ABSOLUTE
    ../clib/printf.c                         0x00000000   Number         0  _printf_pad.o ABSOLUTE
    ../clib/printf.c                         0x00000000   Number         0  _printf_char.o ABSOLUTE
    ../clib/printf.c                         0x00000000   Number         0  __printf_flags_ss_wp.o ABSOLUTE
    ../clib/printf.c                         0x00000000   Number         0  __2printf.o ABSOLUTE
    ../clib/printf.c                         0x00000000   Number         0  __2sprintf.o ABSOLUTE
    ../clib/printf.c                         0x00000000   Number         0  _sputc.o ABSOLUTE
    ../clib/printf.c                         0x00000000   Number         0  noretval__2printf.o ABSOLUTE
    ../clib/printf.c                         0x00000000   Number         0  noretval__2sprintf.o ABSOLUTE
    ../clib/printf.c                         0x00000000   Number         0  _printf_hex_int_ptr.o ABSOLUTE
    ../clib/printf.c                         0x00000000   Number         0  _printf_hex_ptr.o ABSOLUTE
    ../clib/printf.c                         0x00000000   Number         0  _printf_hex_ll_ptr.o ABSOLUTE
    ../clib/printf.c                         0x00000000   Number         0  __printf.o ABSOLUTE
    ../clib/printf_percent.s                 0x00000000   Number         0  _printf_percent.o ABSOLUTE
    ../clib/printf_percent.s                 0x00000000   Number         0  _printf_s.o ABSOLUTE
    ../clib/printf_percent.s                 0x00000000   Number         0  _printf_c.o ABSOLUTE
    ../clib/printf_percent.s                 0x00000000   Number         0  _printf_percent_end.o ABSOLUTE
    ../clib/printf_percent.s                 0x00000000   Number         0  _printf_u.o ABSOLUTE
    ../clib/printf_percent.s                 0x00000000   Number         0  _printf_x.o ABSOLUTE
    ../clib/printf_percent.s                 0x00000000   Number         0  _printf_d.o ABSOLUTE
    ../clib/signal.c                         0x00000000   Number         0  defsig_rtmem_inner.o ABSOLUTE
    ../clib/signal.c                         0x00000000   Number         0  defsig_general.o ABSOLUTE
    ../clib/signal.c                         0x00000000   Number         0  __raise.o ABSOLUTE
    ../clib/signal.c                         0x00000000   Number         0  defsig_rtmem_formal.o ABSOLUTE
    ../clib/signal.c                         0x00000000   Number         0  defsig_rtmem_outer.o ABSOLUTE
    ../clib/signal.c                         0x00000000   Number         0  defsig_fpe_inner.o ABSOLUTE
    ../clib/signal.c                         0x00000000   Number         0  defsig_exit.o ABSOLUTE
    ../clib/signal.c                         0x00000000   Number         0  defsig_fpe_formal.o ABSOLUTE
    ../clib/signal.c                         0x00000000   Number         0  defsig_fpe_outer.o ABSOLUTE
    ../clib/signal.c                         0x00000000   Number         0  defsig_other.o ABSOLUTE
    ../clib/signal.c                         0x00000000   Number         0  defsig_segv_inner.o ABSOLUTE
    ../clib/signal.c                         0x00000000   Number         0  defsig_cppl_inner.o ABSOLUTE
    ../clib/signal.c                         0x00000000   Number         0  defsig_stak_inner.o ABSOLUTE
    ../clib/signal.c                         0x00000000   Number         0  defsig_rtred_inner.o ABSOLUTE
    ../clib/signal.c                         0x00000000   Number         0  defsig_abrt_inner.o ABSOLUTE
    ../clib/signal.c                         0x00000000   Number         0  defsig_pvfn_inner.o ABSOLUTE
    ../clib/signal.s                         0x00000000   Number         0  defsig.o ABSOLUTE
    ../clib/stdio.c                          0x00000000   Number         0  ferror.o ABSOLUTE
    ../clib/stdio.c                          0x00000000   Number         0  ferror_locked.o ABSOLUTE
    ../clib/stdlib.c                         0x00000000   Number         0  exit.o ABSOLUTE
    ../clib/string.c                         0x00000000   Number         0  strcat.o ABSOLUTE
    ../clib/string.c                         0x00000000   Number         0  memcmp.o ABSOLUTE
    ../clib/string.c                         0x00000000   Number         0  strcpy.o ABSOLUTE
    ../clib/string.c                         0x00000000   Number         0  strlen.o ABSOLUTE
    ../fplib/dfixu.s                         0x00000000   Number         0  dfixu.o ABSOLUTE
    ../fplib/dflt.s                          0x00000000   Number         0  dflt_clz.o ABSOLUTE
    ../fplib/dmul.s                          0x00000000   Number         0  dmul.o ABSOLUTE
    ../fplib/dnaninf.s                       0x00000000   Number         0  dnaninf.o ABSOLUTE
    ../fplib/dretinf.s                       0x00000000   Number         0  dretinf.o ABSOLUTE
    ../fplib/fpinit.s                        0x00000000   Number         0  fpinit.o ABSOLUTE
    ../fplib/usenofp.s                       0x00000000   Number         0  usenofp.o ABSOLUTE
    ..\CORE\startup_stm32f40_41xxx.s         0x00000000   Number         0  startup_stm32f40_41xxx.o ABSOLUTE
    ..\FATFS\exfuns\exfuns.c                 0x00000000   Number         0  exfuns.o ABSOLUTE
    ..\FATFS\exfuns\fattester.c              0x00000000   Number         0  fattester.o ABSOLUTE
    ..\FATFS\exfuns\mycc936.c                0x00000000   Number         0  mycc936.o ABSOLUTE
    ..\FATFS\src\diskio.c                    0x00000000   Number         0  diskio.o ABSOLUTE
    ..\FATFS\src\ff.c                        0x00000000   Number         0  ff.o ABSOLUTE
    ..\FWLIB\STM32F4x7_ETH_Driver\src\stm32f4x7_eth.c 0x00000000   Number         0  stm32f4x7_eth.o ABSOLUTE
    ..\FWLIB\STM32F4xx_StdPeriph_Driver\src\misc.c 0x00000000   Number         0  misc.o ABSOLUTE
    ..\FWLIB\STM32F4xx_StdPeriph_Driver\src\stm32f4xx_adc.c 0x00000000   Number         0  stm32f4xx_adc.o ABSOLUTE
    ..\FWLIB\STM32F4xx_StdPeriph_Driver\src\stm32f4xx_dcmi.c 0x00000000   Number         0  stm32f4xx_dcmi.o ABSOLUTE
    ..\FWLIB\STM32F4xx_StdPeriph_Driver\src\stm32f4xx_dma.c 0x00000000   Number         0  stm32f4xx_dma.o ABSOLUTE
    ..\FWLIB\STM32F4xx_StdPeriph_Driver\src\stm32f4xx_fsmc.c 0x00000000   Number         0  stm32f4xx_fsmc.o ABSOLUTE
    ..\FWLIB\STM32F4xx_StdPeriph_Driver\src\stm32f4xx_gpio.c 0x00000000   Number         0  stm32f4xx_gpio.o ABSOLUTE
    ..\FWLIB\STM32F4xx_StdPeriph_Driver\src\stm32f4xx_rcc.c 0x00000000   Number         0  stm32f4xx_rcc.o ABSOLUTE
    ..\FWLIB\STM32F4xx_StdPeriph_Driver\src\stm32f4xx_sdio.c 0x00000000   Number         0  stm32f4xx_sdio.o ABSOLUTE
    ..\FWLIB\STM32F4xx_StdPeriph_Driver\src\stm32f4xx_spi.c 0x00000000   Number         0  stm32f4xx_spi.o ABSOLUTE
    ..\FWLIB\STM32F4xx_StdPeriph_Driver\src\stm32f4xx_syscfg.c 0x00000000   Number         0  stm32f4xx_syscfg.o ABSOLUTE
    ..\FWLIB\STM32F4xx_StdPeriph_Driver\src\stm32f4xx_tim.c 0x00000000   Number         0  stm32f4xx_tim.o ABSOLUTE
    ..\FWLIB\STM32F4xx_StdPeriph_Driver\src\stm32f4xx_usart.c 0x00000000   Number         0  stm32f4xx_usart.o ABSOLUTE
    ..\HARDWARE\ADC3\adc3.c                  0x00000000   Number         0  adc3.o ABSOLUTE
    ..\HARDWARE\BEEP\beep.c                  0x00000000   Number         0  beep.o ABSOLUTE
    ..\HARDWARE\DCMI\dcmi.c                  0x00000000   Number         0  dcmi.o ABSOLUTE
    ..\HARDWARE\DHT11\dht11.c                0x00000000   Number         0  dht11.o ABSOLUTE
    ..\HARDWARE\ETHERNET\LAN8720.c           0x00000000   Number         0  lan8720.o ABSOLUTE
    ..\HARDWARE\KEY\key.c                    0x00000000   Number         0  key.o ABSOLUTE
    ..\HARDWARE\LCD\lcd.c                    0x00000000   Number         0  lcd.o ABSOLUTE
    ..\HARDWARE\LED\led.c                    0x00000000   Number         0  led.o ABSOLUTE
    ..\HARDWARE\LSENS\lsens.c                0x00000000   Number         0  lsens.o ABSOLUTE
    ..\HARDWARE\OV2640\ov2640.c              0x00000000   Number         0  ov2640.o ABSOLUTE
    ..\HARDWARE\OV2640\sccb.c                0x00000000   Number         0  sccb.o ABSOLUTE
    ..\HARDWARE\PWM\pwm.c                    0x00000000   Number         0  pwm.o ABSOLUTE
    ..\HARDWARE\SDIO\sdio_sdcard.c           0x00000000   Number         0  sdio_sdcard.o ABSOLUTE
    ..\HARDWARE\SPI\spi.c                    0x00000000   Number         0  spi.o ABSOLUTE
    ..\HARDWARE\SRAM\sram.c                  0x00000000   Number         0  sram.o ABSOLUTE
    ..\HARDWARE\TIMER\timer.c                0x00000000   Number         0  timer.o ABSOLUTE
    ..\HARDWARE\W25QXX\w25qxx.c              0x00000000   Number         0  w25qxx.o ABSOLUTE
    ..\LWIP\arch\sys_arch.c                  0x00000000   Number         0  sys_arch.o ABSOLUTE
    ..\LWIP\lwip-1.4.1\src\api\api_lib.c     0x00000000   Number         0  api_lib.o ABSOLUTE
    ..\LWIP\lwip-1.4.1\src\api\api_msg.c     0x00000000   Number         0  api_msg.o ABSOLUTE
    ..\LWIP\lwip-1.4.1\src\api\err.c         0x00000000   Number         0  err.o ABSOLUTE
    ..\LWIP\lwip-1.4.1\src\api\netbuf.c      0x00000000   Number         0  netbuf.o ABSOLUTE
    ..\LWIP\lwip-1.4.1\src\api\netdb.c       0x00000000   Number         0  netdb.o ABSOLUTE
    ..\LWIP\lwip-1.4.1\src\api\netifapi.c    0x00000000   Number         0  netifapi.o ABSOLUTE
    ..\LWIP\lwip-1.4.1\src\api\sockets.c     0x00000000   Number         0  sockets.o ABSOLUTE
    ..\LWIP\lwip-1.4.1\src\api\tcpip.c       0x00000000   Number         0  tcpip.o ABSOLUTE
    ..\LWIP\lwip-1.4.1\src\core\def.c        0x00000000   Number         0  def.o ABSOLUTE
    ..\LWIP\lwip-1.4.1\src\core\dhcp.c       0x00000000   Number         0  dhcp.o ABSOLUTE
    ..\LWIP\lwip-1.4.1\src\core\dns.c        0x00000000   Number         0  dns.o ABSOLUTE
    ..\LWIP\lwip-1.4.1\src\core\init.c       0x00000000   Number         0  init.o ABSOLUTE
    ..\LWIP\lwip-1.4.1\src\core\ipv4\autoip.c 0x00000000   Number         0  autoip.o ABSOLUTE
    ..\LWIP\lwip-1.4.1\src\core\ipv4\icmp.c  0x00000000   Number         0  icmp.o ABSOLUTE
    ..\LWIP\lwip-1.4.1\src\core\ipv4\igmp.c  0x00000000   Number         0  igmp.o ABSOLUTE
    ..\LWIP\lwip-1.4.1\src\core\ipv4\inet.c  0x00000000   Number         0  inet.o ABSOLUTE
    ..\LWIP\lwip-1.4.1\src\core\ipv4\inet_chksum.c 0x00000000   Number         0  inet_chksum.o ABSOLUTE
    ..\LWIP\lwip-1.4.1\src\core\ipv4\ip.c    0x00000000   Number         0  ip.o ABSOLUTE
    ..\LWIP\lwip-1.4.1\src\core\ipv4\ip_addr.c 0x00000000   Number         0  ip_addr.o ABSOLUTE
    ..\LWIP\lwip-1.4.1\src\core\ipv4\ip_frag.c 0x00000000   Number         0  ip_frag.o ABSOLUTE
    ..\LWIP\lwip-1.4.1\src\core\mem.c        0x00000000   Number         0  mem.o ABSOLUTE
    ..\LWIP\lwip-1.4.1\src\core\memp.c       0x00000000   Number         0  memp.o ABSOLUTE
    ..\LWIP\lwip-1.4.1\src\core\netif.c      0x00000000   Number         0  netif.o ABSOLUTE
    ..\LWIP\lwip-1.4.1\src\core\pbuf.c       0x00000000   Number         0  pbuf.o ABSOLUTE
    ..\LWIP\lwip-1.4.1\src\core\raw.c        0x00000000   Number         0  raw.o ABSOLUTE
    ..\LWIP\lwip-1.4.1\src\core\stats.c      0x00000000   Number         0  stats.o ABSOLUTE
    ..\LWIP\lwip-1.4.1\src\core\tcp.c        0x00000000   Number         0  tcp.o ABSOLUTE
    ..\LWIP\lwip-1.4.1\src\core\tcp_in.c     0x00000000   Number         0  tcp_in.o ABSOLUTE
    ..\LWIP\lwip-1.4.1\src\core\tcp_out.c    0x00000000   Number         0  tcp_out.o ABSOLUTE
    ..\LWIP\lwip-1.4.1\src\core\timers.c     0x00000000   Number         0  timers.o ABSOLUTE
    ..\LWIP\lwip-1.4.1\src\core\udp.c        0x00000000   Number         0  udp.o ABSOLUTE
    ..\LWIP\lwip-1.4.1\src\netif\etharp.c    0x00000000   Number         0  etharp.o ABSOLUTE
    ..\LWIP\lwip-1.4.1\src\netif\ethernetif.c 0x00000000   Number         0  ethernetif.o ABSOLUTE
    ..\LWIP\lwip_app\lwip_comm\lwip_comm.c   0x00000000   Number         0  lwip_comm.o ABSOLUTE
    ..\LWIP\lwip_app\tcp_client\tcp_client.c 0x00000000   Number         0  tcp_client.o ABSOLUTE
    ..\LWIP\lwip_app\tcp_server\tcp_server.c 0x00000000   Number         0  tcp_server.o ABSOLUTE
    ..\MALLOC\malloc.c                       0x00000000   Number         0  malloc.o ABSOLUTE
    ..\PICTURE\bmp.c                         0x00000000   Number         0  bmp.o ABSOLUTE
    ..\PICTURE\gif.c                         0x00000000   Number         0  gif.o ABSOLUTE
    ..\PICTURE\piclib.c                      0x00000000   Number         0  piclib.o ABSOLUTE
    ..\PICTURE\tjpgd.c                       0x00000000   Number         0  tjpgd.o ABSOLUTE
    ..\SOFTWARE\camera.c                     0x00000000   Number         0  camera.o ABSOLUTE
    ..\SOFTWARE\ihome_function.c             0x00000000   Number         0  ihome_function.o ABSOLUTE
    ..\SYSTEM\delay\delay.c                  0x00000000   Number         0  delay.o ABSOLUTE
    ..\SYSTEM\sys\sys.c                      0x00000000   Number         0  sys.o ABSOLUTE
    ..\SYSTEM\usart\usart.c                  0x00000000   Number         0  usart.o ABSOLUTE
    ..\TEXT\fontupd.c                        0x00000000   Number         0  fontupd.o ABSOLUTE
    ..\TEXT\text.c                           0x00000000   Number         0  text.o ABSOLUTE
    ..\UCOSII\CORE\os_core.c                 0x00000000   Number         0  os_core.o ABSOLUTE
    ..\UCOSII\CORE\os_flag.c                 0x00000000   Number         0  os_flag.o ABSOLUTE
    ..\UCOSII\CORE\os_mbox.c                 0x00000000   Number         0  os_mbox.o ABSOLUTE
    ..\UCOSII\CORE\os_mem.c                  0x00000000   Number         0  os_mem.o ABSOLUTE
    ..\UCOSII\CORE\os_mutex.c                0x00000000   Number         0  os_mutex.o ABSOLUTE
    ..\UCOSII\CORE\os_q.c                    0x00000000   Number         0  os_q.o ABSOLUTE
    ..\UCOSII\CORE\os_sem.c                  0x00000000   Number         0  os_sem.o ABSOLUTE
    ..\UCOSII\CORE\os_task.c                 0x00000000   Number         0  os_task.o ABSOLUTE
    ..\UCOSII\CORE\os_time.c                 0x00000000   Number         0  os_time.o ABSOLUTE
    ..\UCOSII\CORE\os_tmr.c                  0x00000000   Number         0  os_tmr.o ABSOLUTE
    ..\UCOSII\PORT\os_cpu_a.asm              0x00000000   Number         0  os_cpu_a.o ABSOLUTE
    ..\UCOSII\PORT\os_cpu_c.c                0x00000000   Number         0  os_cpu_c.o ABSOLUTE
    ..\USMART\usmart.c                       0x00000000   Number         0  usmart.o ABSOLUTE
    ..\USMART\usmart_config.c                0x00000000   Number         0  usmart_config.o ABSOLUTE
    ..\USMART\usmart_str.c                   0x00000000   Number         0  usmart_str.o ABSOLUTE
    ..\\FATFS\\exfuns\\exfuns.c              0x00000000   Number         0  exfuns.o ABSOLUTE
    ..\\FATFS\\exfuns\\fattester.c           0x00000000   Number         0  fattester.o ABSOLUTE
    ..\\FATFS\\exfuns\\mycc936.c             0x00000000   Number         0  mycc936.o ABSOLUTE
    ..\\FATFS\\src\\diskio.c                 0x00000000   Number         0  diskio.o ABSOLUTE
    ..\\FWLIB\\STM32F4x7_ETH_Driver\\src\\stm32f4x7_eth.c 0x00000000   Number         0  stm32f4x7_eth.o ABSOLUTE
    ..\\FWLIB\\STM32F4xx_StdPeriph_Driver\\src\\misc.c 0x00000000   Number         0  misc.o ABSOLUTE
    ..\\FWLIB\\STM32F4xx_StdPeriph_Driver\\src\\stm32f4xx_adc.c 0x00000000   Number         0  stm32f4xx_adc.o ABSOLUTE
    ..\\FWLIB\\STM32F4xx_StdPeriph_Driver\\src\\stm32f4xx_dcmi.c 0x00000000   Number         0  stm32f4xx_dcmi.o ABSOLUTE
    ..\\FWLIB\\STM32F4xx_StdPeriph_Driver\\src\\stm32f4xx_dma.c 0x00000000   Number         0  stm32f4xx_dma.o ABSOLUTE
    ..\\FWLIB\\STM32F4xx_StdPeriph_Driver\\src\\stm32f4xx_fsmc.c 0x00000000   Number         0  stm32f4xx_fsmc.o ABSOLUTE
    ..\\FWLIB\\STM32F4xx_StdPeriph_Driver\\src\\stm32f4xx_gpio.c 0x00000000   Number         0  stm32f4xx_gpio.o ABSOLUTE
    ..\\FWLIB\\STM32F4xx_StdPeriph_Driver\\src\\stm32f4xx_rcc.c 0x00000000   Number         0  stm32f4xx_rcc.o ABSOLUTE
    ..\\FWLIB\\STM32F4xx_StdPeriph_Driver\\src\\stm32f4xx_sdio.c 0x00000000   Number         0  stm32f4xx_sdio.o ABSOLUTE
    ..\\FWLIB\\STM32F4xx_StdPeriph_Driver\\src\\stm32f4xx_spi.c 0x00000000   Number         0  stm32f4xx_spi.o ABSOLUTE
    ..\\FWLIB\\STM32F4xx_StdPeriph_Driver\\src\\stm32f4xx_syscfg.c 0x00000000   Number         0  stm32f4xx_syscfg.o ABSOLUTE
    ..\\FWLIB\\STM32F4xx_StdPeriph_Driver\\src\\stm32f4xx_tim.c 0x00000000   Number         0  stm32f4xx_tim.o ABSOLUTE
    ..\\FWLIB\\STM32F4xx_StdPeriph_Driver\\src\\stm32f4xx_usart.c 0x00000000   Number         0  stm32f4xx_usart.o ABSOLUTE
    ..\\HARDWARE\\ADC3\\adc3.c               0x00000000   Number         0  adc3.o ABSOLUTE
    ..\\HARDWARE\\BEEP\\beep.c               0x00000000   Number         0  beep.o ABSOLUTE
    ..\\HARDWARE\\DCMI\\dcmi.c               0x00000000   Number         0  dcmi.o ABSOLUTE
    ..\\HARDWARE\\DHT11\\dht11.c             0x00000000   Number         0  dht11.o ABSOLUTE
    ..\\HARDWARE\\ETHERNET\\LAN8720.c        0x00000000   Number         0  lan8720.o ABSOLUTE
    ..\\HARDWARE\\KEY\\key.c                 0x00000000   Number         0  key.o ABSOLUTE
    ..\\HARDWARE\\LCD\\lcd.c                 0x00000000   Number         0  lcd.o ABSOLUTE
    ..\\HARDWARE\\LED\\led.c                 0x00000000   Number         0  led.o ABSOLUTE
    ..\\HARDWARE\\LSENS\\lsens.c             0x00000000   Number         0  lsens.o ABSOLUTE
    ..\\HARDWARE\\OV2640\\ov2640.c           0x00000000   Number         0  ov2640.o ABSOLUTE
    ..\\HARDWARE\\OV2640\\sccb.c             0x00000000   Number         0  sccb.o ABSOLUTE
    ..\\HARDWARE\\PWM\\pwm.c                 0x00000000   Number         0  pwm.o ABSOLUTE
    ..\\HARDWARE\\SDIO\\sdio_sdcard.c        0x00000000   Number         0  sdio_sdcard.o ABSOLUTE
    ..\\HARDWARE\\SPI\\spi.c                 0x00000000   Number         0  spi.o ABSOLUTE
    ..\\HARDWARE\\SRAM\\sram.c               0x00000000   Number         0  sram.o ABSOLUTE
    ..\\HARDWARE\\TIMER\\timer.c             0x00000000   Number         0  timer.o ABSOLUTE
    ..\\HARDWARE\\W25QXX\\w25qxx.c           0x00000000   Number         0  w25qxx.o ABSOLUTE
    ..\\LWIP\\arch\\sys_arch.c               0x00000000   Number         0  sys_arch.o ABSOLUTE
    ..\\LWIP\\lwip-1.4.1\\src\\api\\api_lib.c 0x00000000   Number         0  api_lib.o ABSOLUTE
    ..\\LWIP\\lwip-1.4.1\\src\\api\\api_msg.c 0x00000000   Number         0  api_msg.o ABSOLUTE
    ..\\LWIP\\lwip-1.4.1\\src\\api\\err.c    0x00000000   Number         0  err.o ABSOLUTE
    ..\\LWIP\\lwip-1.4.1\\src\\api\\netbuf.c 0x00000000   Number         0  netbuf.o ABSOLUTE
    ..\\LWIP\\lwip-1.4.1\\src\\api\\netdb.c  0x00000000   Number         0  netdb.o ABSOLUTE
    ..\\LWIP\\lwip-1.4.1\\src\\api\\netifapi.c 0x00000000   Number         0  netifapi.o ABSOLUTE
    ..\\LWIP\\lwip-1.4.1\\src\\api\\sockets.c 0x00000000   Number         0  sockets.o ABSOLUTE
    ..\\LWIP\\lwip-1.4.1\\src\\api\\tcpip.c  0x00000000   Number         0  tcpip.o ABSOLUTE
    ..\\LWIP\\lwip-1.4.1\\src\\core\\def.c   0x00000000   Number         0  def.o ABSOLUTE
    ..\\LWIP\\lwip-1.4.1\\src\\core\\dhcp.c  0x00000000   Number         0  dhcp.o ABSOLUTE
    ..\\LWIP\\lwip-1.4.1\\src\\core\\dns.c   0x00000000   Number         0  dns.o ABSOLUTE
    ..\\LWIP\\lwip-1.4.1\\src\\core\\init.c  0x00000000   Number         0  init.o ABSOLUTE
    ..\\LWIP\\lwip-1.4.1\\src\\core\\ipv4\\autoip.c 0x00000000   Number         0  autoip.o ABSOLUTE
    ..\\LWIP\\lwip-1.4.1\\src\\core\\ipv4\\icmp.c 0x00000000   Number         0  icmp.o ABSOLUTE
    ..\\LWIP\\lwip-1.4.1\\src\\core\\ipv4\\igmp.c 0x00000000   Number         0  igmp.o ABSOLUTE
    ..\\LWIP\\lwip-1.4.1\\src\\core\\ipv4\\inet.c 0x00000000   Number         0  inet.o ABSOLUTE
    ..\\LWIP\\lwip-1.4.1\\src\\core\\ipv4\\inet_chksum.c 0x00000000   Number         0  inet_chksum.o ABSOLUTE
    ..\\LWIP\\lwip-1.4.1\\src\\core\\ipv4\\ip.c 0x00000000   Number         0  ip.o ABSOLUTE
    ..\\LWIP\\lwip-1.4.1\\src\\core\\ipv4\\ip_addr.c 0x00000000   Number         0  ip_addr.o ABSOLUTE
    ..\\LWIP\\lwip-1.4.1\\src\\core\\ipv4\\ip_frag.c 0x00000000   Number         0  ip_frag.o ABSOLUTE
    ..\\LWIP\\lwip-1.4.1\\src\\core\\mem.c   0x00000000   Number         0  mem.o ABSOLUTE
    ..\\LWIP\\lwip-1.4.1\\src\\core\\memp.c  0x00000000   Number         0  memp.o ABSOLUTE
    ..\\LWIP\\lwip-1.4.1\\src\\core\\netif.c 0x00000000   Number         0  netif.o ABSOLUTE
    ..\\LWIP\\lwip-1.4.1\\src\\core\\pbuf.c  0x00000000   Number         0  pbuf.o ABSOLUTE
    ..\\LWIP\\lwip-1.4.1\\src\\core\\raw.c   0x00000000   Number         0  raw.o ABSOLUTE
    ..\\LWIP\\lwip-1.4.1\\src\\core\\stats.c 0x00000000   Number         0  stats.o ABSOLUTE
    ..\\LWIP\\lwip-1.4.1\\src\\core\\tcp.c   0x00000000   Number         0  tcp.o ABSOLUTE
    ..\\LWIP\\lwip-1.4.1\\src\\core\\tcp_in.c 0x00000000   Number         0  tcp_in.o ABSOLUTE
    ..\\LWIP\\lwip-1.4.1\\src\\core\\tcp_out.c 0x00000000   Number         0  tcp_out.o ABSOLUTE
    ..\\LWIP\\lwip-1.4.1\\src\\core\\timers.c 0x00000000   Number         0  timers.o ABSOLUTE
    ..\\LWIP\\lwip-1.4.1\\src\\core\\udp.c   0x00000000   Number         0  udp.o ABSOLUTE
    ..\\LWIP\\lwip-1.4.1\\src\\netif\\etharp.c 0x00000000   Number         0  etharp.o ABSOLUTE
    ..\\LWIP\\lwip-1.4.1\\src\\netif\\ethernetif.c 0x00000000   Number         0  ethernetif.o ABSOLUTE
    ..\\LWIP\\lwip_app\\lwip_comm\\lwip_comm.c 0x00000000   Number         0  lwip_comm.o ABSOLUTE
    ..\\LWIP\\lwip_app\\tcp_client\\tcp_client.c 0x00000000   Number         0  tcp_client.o ABSOLUTE
    ..\\LWIP\\lwip_app\\tcp_server\\tcp_server.c 0x00000000   Number         0  tcp_server.o ABSOLUTE
    ..\\MALLOC\\malloc.c                     0x00000000   Number         0  malloc.o ABSOLUTE
    ..\\PICTURE\\bmp.c                       0x00000000   Number         0  bmp.o ABSOLUTE
    ..\\PICTURE\\gif.c                       0x00000000   Number         0  gif.o ABSOLUTE
    ..\\PICTURE\\piclib.c                    0x00000000   Number         0  piclib.o ABSOLUTE
    ..\\PICTURE\\tjpgd.c                     0x00000000   Number         0  tjpgd.o ABSOLUTE
    ..\\SOFTWARE\\camera.c                   0x00000000   Number         0  camera.o ABSOLUTE
    ..\\SOFTWARE\\ihome_function.c           0x00000000   Number         0  ihome_function.o ABSOLUTE
    ..\\SYSTEM\\delay\\delay.c               0x00000000   Number         0  delay.o ABSOLUTE
    ..\\SYSTEM\\sys\\sys.c                   0x00000000   Number         0  sys.o ABSOLUTE
    ..\\SYSTEM\\usart\\usart.c               0x00000000   Number         0  usart.o ABSOLUTE
    ..\\TEXT\\fontupd.c                      0x00000000   Number         0  fontupd.o ABSOLUTE
    ..\\TEXT\\text.c                         0x00000000   Number         0  text.o ABSOLUTE
    ..\\UCOSII\\CORE\\os_core.c              0x00000000   Number         0  os_core.o ABSOLUTE
    ..\\UCOSII\\CORE\\os_flag.c              0x00000000   Number         0  os_flag.o ABSOLUTE
    ..\\UCOSII\\CORE\\os_mbox.c              0x00000000   Number         0  os_mbox.o ABSOLUTE
    ..\\UCOSII\\CORE\\os_mem.c               0x00000000   Number         0  os_mem.o ABSOLUTE
    ..\\UCOSII\\CORE\\os_mutex.c             0x00000000   Number         0  os_mutex.o ABSOLUTE
    ..\\UCOSII\\CORE\\os_q.c                 0x00000000   Number         0  os_q.o ABSOLUTE
    ..\\UCOSII\\CORE\\os_sem.c               0x00000000   Number         0  os_sem.o ABSOLUTE
    ..\\UCOSII\\CORE\\os_task.c              0x00000000   Number         0  os_task.o ABSOLUTE
    ..\\UCOSII\\CORE\\os_time.c              0x00000000   Number         0  os_time.o ABSOLUTE
    ..\\UCOSII\\CORE\\os_tmr.c               0x00000000   Number         0  os_tmr.o ABSOLUTE
    ..\\UCOSII\\PORT\\os_cpu_c.c             0x00000000   Number         0  os_cpu_c.o ABSOLUTE
    ..\\USMART\\usmart.c                     0x00000000   Number         0  usmart.o ABSOLUTE
    ..\\USMART\\usmart_config.c              0x00000000   Number         0  usmart_config.o ABSOLUTE
    ..\\USMART\\usmart_str.c                 0x00000000   Number         0  usmart_str.o ABSOLUTE
    dc.s                                     0x00000000   Number         0  dc.o ABSOLUTE
    main.c                                   0x00000000   Number         0  main.o ABSOLUTE
    main.c                                   0x00000000   Number         0  main.o ABSOLUTE
    stm32f4xx_it.c                           0x00000000   Number         0  stm32f4xx_it.o ABSOLUTE
    stm32f4xx_it.c                           0x00000000   Number         0  stm32f4xx_it.o ABSOLUTE
    system_stm32f4xx.c                       0x00000000   Number         0  system_stm32f4xx.o ABSOLUTE
    system_stm32f4xx.c                       0x00000000   Number         0  system_stm32f4xx.o ABSOLUTE
    RESET                                    0x08000000   Section      392  startup_stm32f40_41xxx.o(RESET)
    !!!main                                  0x08000188   Section        8  __main.o(!!!main)
    !!!scatter                               0x08000190   Section       52  __scatter.o(!!!scatter)
    !!dczerorl2                              0x080001c4   Section       90  __dczerorl2.o(!!dczerorl2)
    !!handler_zi                             0x08000220   Section       28  __scatter_zi.o(!!handler_zi)
    .ARM.Collect$$_printf_percent$$00000000  0x0800023c   Section        0  _printf_percent.o(.ARM.Collect$$_printf_percent$$00000000)
    .ARM.Collect$$_printf_percent$$00000009  0x0800023c   Section        6  _printf_d.o(.ARM.Collect$$_printf_percent$$00000009)
    .ARM.Collect$$_printf_percent$$0000000A  0x08000242   Section        6  _printf_u.o(.ARM.Collect$$_printf_percent$$0000000A)
    .ARM.Collect$$_printf_percent$$0000000C  0x08000248   Section        6  _printf_x.o(.ARM.Collect$$_printf_percent$$0000000C)
    .ARM.Collect$$_printf_percent$$00000013  0x0800024e   Section        6  _printf_c.o(.ARM.Collect$$_printf_percent$$00000013)
    .ARM.Collect$$_printf_percent$$00000014  0x08000254   Section        6  _printf_s.o(.ARM.Collect$$_printf_percent$$00000014)
    .ARM.Collect$$_printf_percent$$00000017  0x0800025a   Section        4  _printf_percent_end.o(.ARM.Collect$$_printf_percent$$00000017)
    .ARM.Collect$$libinit$$00000000          0x0800025e   Section        2  libinit.o(.ARM.Collect$$libinit$$00000000)
    .ARM.Collect$$libinit$$00000001          0x08000260   Section        4  libinit2.o(.ARM.Collect$$libinit$$00000001)
    .ARM.Collect$$libinit$$00000004          0x08000264   Section        0  libinit2.o(.ARM.Collect$$libinit$$00000004)
    .ARM.Collect$$libinit$$0000000A          0x08000264   Section        0  libinit2.o(.ARM.Collect$$libinit$$0000000A)
    .ARM.Collect$$libinit$$0000000C          0x08000264   Section        0  libinit2.o(.ARM.Collect$$libinit$$0000000C)
    .ARM.Collect$$libinit$$0000000E          0x08000264   Section        0  libinit2.o(.ARM.Collect$$libinit$$0000000E)
    .ARM.Collect$$libinit$$0000000F          0x08000264   Section        6  libinit2.o(.ARM.Collect$$libinit$$0000000F)
    .ARM.Collect$$libinit$$00000011          0x0800026a   Section        0  libinit2.o(.ARM.Collect$$libinit$$00000011)
    .ARM.Collect$$libinit$$00000012          0x0800026a   Section       12  libinit2.o(.ARM.Collect$$libinit$$00000012)
    .ARM.Collect$$libinit$$00000013          0x08000276   Section        0  libinit2.o(.ARM.Collect$$libinit$$00000013)
    .ARM.Collect$$libinit$$00000015          0x08000276   Section        0  libinit2.o(.ARM.Collect$$libinit$$00000015)
    .ARM.Collect$$libinit$$00000017          0x08000276   Section        0  libinit2.o(.ARM.Collect$$libinit$$00000017)
    .ARM.Collect$$libinit$$00000019          0x08000276   Section        0  libinit2.o(.ARM.Collect$$libinit$$00000019)
    .ARM.Collect$$libinit$$0000001B          0x08000276   Section        0  libinit2.o(.ARM.Collect$$libinit$$0000001B)
    .ARM.Collect$$libinit$$0000001D          0x08000276   Section        0  libinit2.o(.ARM.Collect$$libinit$$0000001D)
    .ARM.Collect$$libinit$$0000001F          0x08000276   Section        0  libinit2.o(.ARM.Collect$$libinit$$0000001F)
    .ARM.Collect$$libinit$$00000021          0x08000276   Section        0  libinit2.o(.ARM.Collect$$libinit$$00000021)
    .ARM.Collect$$libinit$$00000023          0x08000276   Section        0  libinit2.o(.ARM.Collect$$libinit$$00000023)
    .ARM.Collect$$libinit$$00000025          0x08000276   Section        0  libinit2.o(.ARM.Collect$$libinit$$00000025)
    .ARM.Collect$$libinit$$0000002C          0x08000276   Section        0  libinit2.o(.ARM.Collect$$libinit$$0000002C)
    .ARM.Collect$$libinit$$0000002E          0x08000276   Section        0  libinit2.o(.ARM.Collect$$libinit$$0000002E)
    .ARM.Collect$$libinit$$00000030          0x08000276   Section        0  libinit2.o(.ARM.Collect$$libinit$$00000030)
    .ARM.Collect$$libinit$$00000032          0x08000276   Section        0  libinit2.o(.ARM.Collect$$libinit$$00000032)
    .ARM.Collect$$libinit$$00000033          0x08000276   Section        2  libinit2.o(.ARM.Collect$$libinit$$00000033)
    .ARM.Collect$$libshutdown$$00000000      0x08000278   Section        2  libshutdown.o(.ARM.Collect$$libshutdown$$00000000)
    .ARM.Collect$$libshutdown$$00000003      0x0800027a   Section        0  libshutdown2.o(.ARM.Collect$$libshutdown$$00000003)
    .ARM.Collect$$libshutdown$$00000006      0x0800027a   Section        0  libshutdown2.o(.ARM.Collect$$libshutdown$$00000006)
    .ARM.Collect$$libshutdown$$00000009      0x0800027a   Section        0  libshutdown2.o(.ARM.Collect$$libshutdown$$00000009)
    .ARM.Collect$$libshutdown$$0000000B      0x0800027a   Section        0  libshutdown2.o(.ARM.Collect$$libshutdown$$0000000B)
    .ARM.Collect$$libshutdown$$0000000E      0x0800027a   Section        0  libshutdown2.o(.ARM.Collect$$libshutdown$$0000000E)
    .ARM.Collect$$libshutdown$$0000000F      0x0800027a   Section        2  libshutdown2.o(.ARM.Collect$$libshutdown$$0000000F)
    .ARM.Collect$$rtentry$$00000000          0x0800027c   Section        0  __rtentry.o(.ARM.Collect$$rtentry$$00000000)
    .ARM.Collect$$rtentry$$00000002          0x0800027c   Section        0  __rtentry2.o(.ARM.Collect$$rtentry$$00000002)
    .ARM.Collect$$rtentry$$00000004          0x0800027c   Section        6  __rtentry4.o(.ARM.Collect$$rtentry$$00000004)
    .ARM.Collect$$rtentry$$00000009          0x08000282   Section        0  __rtentry2.o(.ARM.Collect$$rtentry$$00000009)
    .ARM.Collect$$rtentry$$0000000A          0x08000282   Section        4  __rtentry2.o(.ARM.Collect$$rtentry$$0000000A)
    .ARM.Collect$$rtentry$$0000000C          0x08000286   Section        0  __rtentry2.o(.ARM.Collect$$rtentry$$0000000C)
    .ARM.Collect$$rtentry$$0000000D          0x08000286   Section        8  __rtentry2.o(.ARM.Collect$$rtentry$$0000000D)
    .ARM.Collect$$rtexit$$00000000           0x0800028e   Section        2  rtexit.o(.ARM.Collect$$rtexit$$00000000)
    .ARM.Collect$$rtexit$$00000002           0x08000290   Section        0  rtexit2.o(.ARM.Collect$$rtexit$$00000002)
    .ARM.Collect$$rtexit$$00000003           0x08000290   Section        4  rtexit2.o(.ARM.Collect$$rtexit$$00000003)
    .ARM.Collect$$rtexit$$00000004           0x08000294   Section        6  rtexit2.o(.ARM.Collect$$rtexit$$00000004)
    .emb_text                                0x0800029c   Section       16  sys.o(.emb_text)
    $v0                                      0x0800029c   Number         0  sys.o(.emb_text)
    .text                                    0x080002ac   Section        0  main.o(.text)
    .text                                    0x08000678   Section        0  stm32f4xx_it.o(.text)
    .text                                    0x0800068c   Section        0  system_stm32f4xx.o(.text)
    SetSysClock                              0x0800068d   Thumb Code   220  system_stm32f4xx.o(.text)
    .text                                    0x0800089c   Section        0  ihome_function.o(.text)
    .text                                    0x080016e4   Section        0  camera.o(.text)
    .text                                    0x08001c88   Section        0  led.o(.text)
    .text                                    0x08001cf8   Section        0  timer.o(.text)
    .text                                    0x08001ee8   Section        0  lcd.o(.text)
    .text                                    0x08006b68   Section        0  lan8720.o(.text)
    ETHERNET_NVICConfiguration               0x08006bf1   Thumb Code    32  lan8720.o(.text)
    .text                                    0x08006ef8   Section        0  sram.o(.text)
    .text                                    0x080072ac   Section        0  dht11.o(.text)
    .text                                    0x08007440   Section        0  lsens.o(.text)
    .text                                    0x080074a8   Section        0  adc3.o(.text)
    .text                                    0x08007534   Section        0  pwm.o(.text)
    .text                                    0x080075e0   Section        0  beep.o(.text)
    .text                                    0x08007620   Section        0  dcmi.o(.text)
    .text                                    0x08007924   Section        0  ov2640.o(.text)
    .text                                    0x08007f08   Section        0  sccb.o(.text)
    .text                                    0x0800817c   Section        0  w25qxx.o(.text)
    .text                                    0x08008504   Section        0  sdio_sdcard.o(.text)
    .text                                    0x0800a264   Section        0  spi.o(.text)
    .text                                    0x0800a37c   Section       64  startup_stm32f40_41xxx.o(.text)
    $v0                                      0x0800a37c   Number         0  startup_stm32f40_41xxx.o(.text)
    .text                                    0x0800a3bc   Section        0  misc.o(.text)
    .text                                    0x0800a49c   Section        0  stm32f4xx_gpio.o(.text)
    .text                                    0x0800a730   Section        0  stm32f4xx_rcc.o(.text)
    .text                                    0x0800ad8c   Section        0  stm32f4xx_syscfg.o(.text)
    .text                                    0x0800ae20   Section        0  stm32f4xx_tim.o(.text)
    TI4_Config                               0x0800b5bf   Thumb Code    80  stm32f4xx_tim.o(.text)
    TI3_Config                               0x0800b621   Thumb Code    72  stm32f4xx_tim.o(.text)
    TI2_Config                               0x0800b683   Thumb Code    90  stm32f4xx_tim.o(.text)
    TI1_Config                               0x0800b6ef   Thumb Code    58  stm32f4xx_tim.o(.text)
    .text                                    0x0800bac4   Section        0  stm32f4xx_usart.o(.text)
    .text                                    0x0800bf18   Section        0  stm32f4x7_eth.o(.text)
    ETH_Delay                                0x0800bf19   Thumb Code    28  stm32f4x7_eth.o(.text)
    .text                                    0x0800cd58   Section        0  stm32f4xx_adc.o(.text)
    .text                                    0x0800d1bc   Section        0  stm32f4xx_fsmc.o(.text)
    .text                                    0x0800d784   Section        0  stm32f4xx_dma.o(.text)
    .text                                    0x0800db2c   Section        0  stm32f4xx_dcmi.o(.text)
    .text                                    0x0800dcb8   Section        0  stm32f4xx_spi.o(.text)
    .text                                    0x0800e138   Section        0  stm32f4xx_sdio.o(.text)
    .text                                    0x0800e314   Section        0  delay.o(.text)
    .text                                    0x0800e43c   Section        0  usart.o(.text)
    .text                                    0x0800e598   Section        0  usmart.o(.text)
    .text                                    0x0800f1d4   Section        0  usmart_str.o(.text)
    .text                                    0x0800f6fc   Section        0  lwip_comm.o(.text)
    .text                                    0x0800fe5c   Section        0  tcp_server.o(.text)
    .text                                    0x0801027c   Section        0  tcp_client.o(.text)
    .text                                    0x08011758   Section        0  etharp.o(.text)
    etharp_free_entry                        0x08011759   Thumb Code   112  etharp.o(.text)
    etharp_find_entry                        0x08011859   Thumb Code   510  etharp.o(.text)
    etharp_send_ip                           0x08011a57   Thumb Code    86  etharp.o(.text)
    etharp_update_arp_entry                  0x08011aad   Thumb Code   506  etharp.o(.text)
    etharp_arp_input                         0x08011d49   Thumb Code   358  etharp.o(.text)
    etharp_raw                               0x08011eaf   Thumb Code   268  etharp.o(.text)
    etharp_output_to_arp_index               0x08011fe3   Thumb Code   142  etharp.o(.text)
    .text                                    0x080125dc   Section        0  ethernetif.o(.text)
    low_level_init                           0x080125dd   Thumb Code   142  ethernetif.o(.text)
    low_level_output                         0x0801266b   Thumb Code    62  ethernetif.o(.text)
    low_level_input                          0x080126a9   Thumb Code   110  ethernetif.o(.text)
    .text                                    0x08012804   Section        0  icmp.o(.text)
    icmp_send_response                       0x080129f1   Thumb Code   160  icmp.o(.text)
    .text                                    0x08012c28   Section        0  inet_chksum.o(.text)
    lwip_standard_chksum                     0x08012c29   Thumb Code    94  inet_chksum.o(.text)
    .text                                    0x08012edc   Section        0  ip.o(.text)
    .text                                    0x0801330c   Section        0  ip_addr.o(.text)
    .text                                    0x08013638   Section        0  ip_frag.o(.text)
    ip_reass_dequeue_datagram                0x08013639   Thumb Code    62  ip_frag.o(.text)
    ip_reass_free_complete_datagram          0x08013677   Thumb Code   274  ip_frag.o(.text)
    ip_reass_remove_oldest_datagram          0x080137c1   Thumb Code   118  ip_frag.o(.text)
    ip_reass_enqueue_new_datagram            0x08013837   Thumb Code    84  ip_frag.o(.text)
    ip_reass_chain_frag_into_datagram_and_validate 0x0801388b   Thumb Code   826  ip_frag.o(.text)
    ip_frag_alloc_pbuf_custom_ref            0x08013d5f   Thumb Code    10  ip_frag.o(.text)
    ip_frag_free_pbuf_custom_ref             0x08013d69   Thumb Code    42  ip_frag.o(.text)
    ipfrag_free_pbuf_custom                  0x08013d93   Thumb Code    82  ip_frag.o(.text)
    .text                                    0x08014060   Section        0  def.o(.text)
    .text                                    0x080140a0   Section        0  dhcp.o(.text)
    dhcp_delete_msg                          0x080140a1   Thumb Code   108  dhcp.o(.text)
    dhcp_option_trailer                      0x0801410d   Thumb Code   142  dhcp.o(.text)
    dhcp_option_byte                         0x0801419b   Thumb Code    48  dhcp.o(.text)
    dhcp_option                              0x080141cb   Thumb Code    66  dhcp.o(.text)
    dhcp_option_short                        0x0801420d   Thumb Code    64  dhcp.o(.text)
    dhcp_create_msg                          0x0801424d   Thumb Code   440  dhcp.o(.text)
    dhcp_set_state                           0x08014405   Thumb Code    16  dhcp.o(.text)
    dhcp_discover                            0x08014415   Thumb Code   848  dhcp.o(.text)
    dhcp_handle_nak                          0x08014765   Thumb Code    56  dhcp.o(.text)
    dhcp_check                               0x0801479d   Thumb Code    70  dhcp.o(.text)
    dhcp_option_long                         0x080147e3   Thumb Code   100  dhcp.o(.text)
    dhcp_select                              0x08014847   Thumb Code   256  dhcp.o(.text)
    dhcp_handle_offer                        0x08014947   Thumb Code    54  dhcp.o(.text)
    dhcp_t1_timeout                          0x08014a13   Thumb Code    40  dhcp.o(.text)
    dhcp_rebind                              0x08014a3b   Thumb Code   148  dhcp.o(.text)
    dhcp_t2_timeout                          0x08014acf   Thumb Code   122  dhcp.o(.text)
    dhcp_reboot                              0x08014b93   Thumb Code   180  dhcp.o(.text)
    dhcp_bind                                0x08014cf9   Thumb Code   304  dhcp.o(.text)
    dhcp_timeout                             0x08014e29   Thumb Code   196  dhcp.o(.text)
    dhcp_handle_ack                          0x08014f71   Thumb Code   112  dhcp.o(.text)
    dhcp_parse_reply                         0x080150eb   Thumb Code  1306  dhcp.o(.text)
    dhcp_recv                                0x08015605   Thumb Code   324  dhcp.o(.text)
    dhcp_decline                             0x08015a21   Thumb Code   142  dhcp.o(.text)
    .text                                    0x08015b0c   Section        0  init.o(.text)
    .text                                    0x08015b30   Section        0  memp.o(.text)
    .text                                    0x08015d04   Section        0  netif.o(.text)
    .text                                    0x08016044   Section        0  pbuf.o(.text)
    .text                                    0x080170e4   Section        0  raw.o(.text)
    .text                                    0x08017330   Section        0  tcp.o(.text)
    tcp_close_shutdown                       0x08017a19   Thumb Code   460  tcp.o(.text)
    tcp_new_port                             0x0801805d   Thumb Code    96  tcp.o(.text)
    tcp_accept_null                          0x08018167   Thumb Code     8  tcp.o(.text)
    tcp_kill_prio                            0x080184b9   Thumb Code    80  tcp.o(.text)
    tcp_kill_timewait                        0x08018509   Thumb Code    54  tcp.o(.text)
    .text                                    0x080187bc   Section        0  tcp_in.o(.text)
    tcp_receive                              0x080187bd   Thumb Code  2156  tcp_in.o(.text)
    tcp_parseopt                             0x08019029   Thumb Code   392  tcp_in.o(.text)
    tcp_process                              0x080191b1   Thumb Code  1586  tcp_in.o(.text)
    tcp_listen_input                         0x080197e3   Thumb Code   280  tcp_in.o(.text)
    tcp_timewait_input                       0x080198fb   Thumb Code   140  tcp_in.o(.text)
    .text                                    0x0801a034   Section        0  tcp_out.o(.text)
    tcp_output_alloc_header                  0x0801a035   Thumb Code   148  tcp_out.o(.text)
    tcp_create_segment                       0x0801a0c9   Thumb Code   184  tcp_out.o(.text)
    tcp_pbuf_prealloc                        0x0801a36d   Thumb Code   468  tcp_out.o(.text)
    tcp_write_checks                         0x0801a541   Thumb Code   198  tcp_out.o(.text)
    tcp_output_segment                       0x0801ad2d   Thumb Code   210  tcp_out.o(.text)
    .text                                    0x0801b37c   Section        0  timers.o(.text)
    tcpip_tcp_timer                          0x0801b42b   Thumb Code    40  timers.o(.text)
    ip_reass_timer                           0x0801b479   Thumb Code    26  timers.o(.text)
    arp_timer                                0x0801b493   Thumb Code    26  timers.o(.text)
    dhcp_timer_coarse                        0x0801b4ad   Thumb Code    26  timers.o(.text)
    dhcp_timer_fine                          0x0801b4c7   Thumb Code    26  timers.o(.text)
    .text                                    0x0801b6ac   Section        0  udp.o(.text)
    udp_new_port                             0x0801b6af   Thumb Code    80  udp.o(.text)
    .text                                    0x0801bc94   Section        0  mem.o(.text)
    plug_holes                               0x0801bc95   Thumb Code   218  mem.o(.text)
    .text                                    0x0801c3d8   Section        0  sys_arch.o(.text)
    .text                                    0x0801c7ac   Section        0  api_lib.o(.text)
    netconn_recv_data                        0x0801cd9d   Thumb Code   332  api_lib.o(.text)
    netconn_close_shutdown                   0x0801d29f   Thumb Code    96  api_lib.o(.text)
    .text                                    0x0801d350   Section        0  api_msg.o(.text)
    recv_raw                                 0x0801d351   Thumb Code   150  api_msg.o(.text)
    recv_udp                                 0x0801d3e7   Thumb Code   200  api_msg.o(.text)
    recv_tcp                                 0x0801d4af   Thumb Code   206  api_msg.o(.text)
    err_tcp                                  0x0801d57d   Thumb Code   250  api_msg.o(.text)
    do_writemore                             0x0801d677   Thumb Code   940  api_msg.o(.text)
    sent_tcp                                 0x0801da23   Thumb Code   126  api_msg.o(.text)
    do_close_internal                        0x0801daa1   Thumb Code   452  api_msg.o(.text)
    poll_tcp                                 0x0801dc65   Thumb Code   126  api_msg.o(.text)
    setup_tcp                                0x0801dce3   Thumb Code    50  api_msg.o(.text)
    accept_function                          0x0801df07   Thumb Code   176  api_msg.o(.text)
    pcb_new                                  0x0801dfb7   Thumb Code   178  api_msg.o(.text)
    netconn_drain                            0x0801e089   Thumb Code   204  api_msg.o(.text)
    do_connected                             0x0801e445   Thumb Code   204  api_msg.o(.text)
    .text                                    0x0801eae0   Section        0  netbuf.o(.text)
    .text                                    0x0801ee90   Section        0  sockets.o(.text)
    get_socket                               0x0801ee93   Thumb Code    44  sockets.o(.text)
    tryget_socket                            0x0801eebf   Thumb Code    42  sockets.o(.text)
    alloc_socket                             0x0801eee9   Thumb Code   166  sockets.o(.text)
    free_socket                              0x0801ef8f   Thumb Code    56  sockets.o(.text)
    event_callback                           0x0801efc7   Thumb Code   374  sockets.o(.text)
    lwip_selscan                             0x0801fc95   Thumb Code   380  sockets.o(.text)
    lwip_getaddrname                         0x0802029f   Thumb Code   130  sockets.o(.text)
    lwip_getsockopt_internal                 0x0802034d   Thumb Code   496  sockets.o(.text)
    lwip_setsockopt_internal                 0x080206d5   Thumb Code   426  sockets.o(.text)
    .text                                    0x08020aa4   Section        0  tcpip.o(.text)
    tcpip_thread                             0x08020aa5   Thumb Code   230  tcpip.o(.text)
    pbuf_free_int                            0x08020d73   Thumb Code    14  tcpip.o(.text)
    .text                                    0x08020e5c   Section        0  os_core.o(.text)
    OS_InitTaskStat                          0x08020fd1   Thumb Code    52  os_core.o(.text)
    OS_InitTaskIdle                          0x08021027   Thumb Code    52  os_core.o(.text)
    OS_InitEventList                         0x0802106d   Thumb Code    84  os_core.o(.text)
    OS_InitTCBList                           0x080210c1   Thumb Code   106  os_core.o(.text)
    OS_InitRdyList                           0x0802112b   Thumb Code    44  os_core.o(.text)
    OS_InitMisc                              0x08021157   Thumb Code    44  os_core.o(.text)
    OS_SchedNew                              0x080211d3   Thumb Code    26  os_core.o(.text)
    .text                                    0x080217cc   Section        0  os_flag.o(.text)
    OS_FlagTaskRdy                           0x08021943   Thumb Code    82  os_flag.o(.text)
    OS_FlagBlock                             0x08021afd   Thumb Code   152  os_flag.o(.text)
    .text                                    0x08021fd8   Section        0  os_mem.o(.text)
    .text                                    0x080221bc   Section        0  os_q.o(.text)
    .text                                    0x080227b4   Section        0  os_sem.o(.text)
    .text                                    0x08022b90   Section        0  os_task.o(.text)
    .text                                    0x08023354   Section        0  os_time.o(.text)
    .text                                    0x08023504   Section        0  os_tmr.o(.text)
    OSTmr_Alloc                              0x08023505   Thumb Code    50  os_tmr.o(.text)
    OSTmr_Free                               0x08023597   Thumb Code    58  os_tmr.o(.text)
    OSTmr_Unlink                             0x080235d1   Thumb Code    62  os_tmr.o(.text)
    OSTmr_Link                               0x080237f7   Thumb Code   100  os_tmr.o(.text)
    OSTmr_Task                               0x080239bd   Thumb Code   114  os_tmr.o(.text)
    OSTmr_InitTask                           0x08023a2f   Thumb Code    50  os_tmr.o(.text)
    .text                                    0x08023b74   Section        0  os_cpu_c.o(.text)
    .text                                    0x08023d5c   Section      200  os_cpu_a.o(.text)
    $v0                                      0x08023d5c   Number         0  os_cpu_a.o(.text)
    .text                                    0x08023e24   Section        0  malloc.o(.text)
    .text                                    0x08024050   Section        0  diskio.o(.text)
    .text                                    0x08024250   Section        0  ff.o(.text)
    mem_cpy                                  0x08024251   Thumb Code    26  ff.o(.text)
    mem_set                                  0x0802426b   Thumb Code    20  ff.o(.text)
    mem_cmp                                  0x0802427f   Thumb Code    38  ff.o(.text)
    chk_chr                                  0x080242a5   Thumb Code    20  ff.o(.text)
    sync_window                              0x080242b9   Thumb Code    76  ff.o(.text)
    move_window                              0x08024305   Thumb Code    50  ff.o(.text)
    sync_fs                                  0x08024337   Thumb Code   200  ff.o(.text)
    remove_chain                             0x08024637   Thumb Code   108  ff.o(.text)
    create_chain                             0x080246a3   Thumb Code   214  ff.o(.text)
    clmt_clust                               0x08024779   Thumb Code    50  ff.o(.text)
    dir_next                                 0x08024849   Thumb Code   272  ff.o(.text)
    dir_alloc                                0x08024959   Thumb Code    92  ff.o(.text)
    ld_clust                                 0x080249b5   Thumb Code    32  ff.o(.text)
    st_clust                                 0x080249d5   Thumb Code    16  ff.o(.text)
    cmp_lfn                                  0x080249e5   Thumb Code   138  ff.o(.text)
    pick_lfn                                 0x08024a6f   Thumb Code   112  ff.o(.text)
    fit_lfn                                  0x08024adf   Thumb Code   122  ff.o(.text)
    gen_numname                              0x08024b59   Thumb Code   194  ff.o(.text)
    sum_sfn                                  0x08024c1b   Thumb Code    32  ff.o(.text)
    dir_find                                 0x08024c3b   Thumb Code   234  ff.o(.text)
    dir_read                                 0x08024d25   Thumb Code   204  ff.o(.text)
    dir_register                             0x08024df1   Thumb Code   298  ff.o(.text)
    dir_remove                               0x08024f1b   Thumb Code   106  ff.o(.text)
    get_fileinfo                             0x08024f85   Thumb Code   268  ff.o(.text)
    create_name                              0x08025091   Thumb Code   604  ff.o(.text)
    follow_path                              0x080252ed   Thumb Code   144  ff.o(.text)
    get_ldnumber                             0x0802537d   Thumb Code    74  ff.o(.text)
    check_fs                                 0x080253c7   Thumb Code   140  ff.o(.text)
    find_volume                              0x08025453   Thumb Code   916  ff.o(.text)
    validate                                 0x080257e7   Thumb Code    54  ff.o(.text)
    putc_bfd                                 0x0802717b   Thumb Code    68  ff.o(.text)
    .text                                    0x080274ec   Section        0  exfuns.o(.text)
    .text                                    0x08027684   Section        0  mycc936.o(.text)
    .text                                    0x08027750   Section        0  text.o(.text)
    .text                                    0x08027a24   Section        2  use_no_semi_2.o(.text)
    .text                                    0x08027a28   Section       16  rt_ctype_table.o(.text)
    .text                                    0x08027a38   Section       72  llsdiv.o(.text)
    .text                                    0x08027a80   Section        0  noretval__2printf.o(.text)
    .text                                    0x08027a98   Section        0  noretval__2sprintf.o(.text)
    .text                                    0x08027ac0   Section        0  _printf_pad.o(.text)
    .text                                    0x08027b0e   Section        0  _printf_str.o(.text)
    .text                                    0x08027b60   Section        0  _printf_dec.o(.text)
    .text                                    0x08027bd8   Section        0  _printf_hex_int.o(.text)
    .text                                    0x08027c30   Section        0  __printf_flags_ss_wp.o(.text)
    .text                                    0x08027db8   Section        0  memcmp.o(.text)
    .text                                    0x08027e10   Section        0  strcpy.o(.text)
    .text                                    0x08027e58   Section        0  strlen.o(.text)
    .text                                    0x08027e96   Section      138  rt_memcpy_v6.o(.text)
    .text                                    0x08027f20   Section       68  rt_memclr.o(.text)
    .text                                    0x08027f64   Section       78  rt_memclr_w.o(.text)
    .text                                    0x08027fb4   Section      128  strcmpv7m.o(.text)
    .text                                    0x08028034   Section        0  heapauxi.o(.text)
    .text                                    0x0802803a   Section        2  use_no_semi.o(.text)
    .text                                    0x0802803c   Section        8  rt_locale_intlibspace.o(.text)
    .text                                    0x08028044   Section      238  lludivv7m.o(.text)
    .text                                    0x08028132   Section        0  _printf_intcommon.o(.text)
    .text                                    0x080281e4   Section        0  _printf_char_common.o(.text)
    _printf_input_char                       0x080281e5   Thumb Code    10  _printf_char_common.o(.text)
    .text                                    0x08028214   Section        0  _sputc.o(.text)
    .text                                    0x0802821e   Section        0  _printf_char.o(.text)
    .text                                    0x0802824c   Section        0  _printf_char_file.o(.text)
    .text                                    0x08028270   Section      100  rt_memcpy_w.o(.text)
    .text                                    0x080282d4   Section        8  libspace.o(.text)
    .text                                    0x080282dc   Section        0  ferror.o(.text)
    .text                                    0x080282e4   Section       74  sys_stackheap_outer.o(.text)
    .text                                    0x0802832e   Section        0  exit.o(.text)
    i._is_digit                              0x0802833a   Section        0  __printf_wp.o(i._is_digit)
    locale$$code                             0x08028348   Section       44  lc_ctype_c.o(locale$$code)
    x$fpl$dfixu                              0x08028374   Section       90  dfixu.o(x$fpl$dfixu)
    $v0                                      0x08028374   Number         0  dfixu.o(x$fpl$dfixu)
    x$fpl$dfltu                              0x080283ce   Section       38  dflt_clz.o(x$fpl$dfltu)
    $v0                                      0x080283ce   Number         0  dflt_clz.o(x$fpl$dfltu)
    x$fpl$dmul                               0x080283f4   Section      340  dmul.o(x$fpl$dmul)
    $v0                                      0x080283f4   Number         0  dmul.o(x$fpl$dmul)
    x$fpl$dnaninf                            0x08028548   Section      156  dnaninf.o(x$fpl$dnaninf)
    $v0                                      0x08028548   Number         0  dnaninf.o(x$fpl$dnaninf)
    x$fpl$dretinf                            0x080285e4   Section       12  dretinf.o(x$fpl$dretinf)
    $v0                                      0x080285e4   Number         0  dretinf.o(x$fpl$dretinf)
    x$fpl$fpinit                             0x080285f0   Section       10  fpinit.o(x$fpl$fpinit)
    $v0                                      0x080285f0   Number         0  fpinit.o(x$fpl$fpinit)
    .constdata                               0x080285fa   Section       66  main.o(.constdata)
    x$fpl$usenofp                            0x080285fa   Section        0  usenofp.o(x$fpl$usenofp)
    .constdata                               0x0802863c   Section     6080  lcd.o(.constdata)
    .constdata                               0x08029dfc   Section      808  ov2640.o(.constdata)
    OV2640_AUTOEXPOSURE_LEVEL                0x0802a0fc   Data          40  ov2640.o(.constdata)
    .constdata                               0x0802a124   Section       28  stm32f4xx_fsmc.o(.constdata)
    .constdata                               0x0802a140   Section       12  etharp.o(.constdata)
    .constdata                               0x0802a14c   Section        8  ip_addr.o(.constdata)
    .constdata                               0x0802a154   Section       56  memp.o(.constdata)
    memp_sizes                               0x0802a154   Data          28  memp.o(.constdata)
    memp_num                                 0x0802a170   Data          28  memp.o(.constdata)
    .constdata                               0x0802a18c   Section       80  tcp.o(.constdata)
    .constdata                               0x0802a1dc   Section        4  sys_arch.o(.constdata)
    .constdata                               0x0802a1e0   Section       64  sockets.o(.constdata)
    err_to_errno_table                       0x0802a1e0   Data          64  sockets.o(.constdata)
    .constdata                               0x0802a220   Section      256  os_core.o(.constdata)
    .constdata                               0x0802a320   Section       36  malloc.o(.constdata)
    .constdata                               0x0802a344   Section       58  ff.o(.constdata)
    LfnOfs                                   0x0802a344   Data          13  ff.o(.constdata)
    vst                                      0x0802a352   Data          22  ff.o(.constdata)
    cst                                      0x0802a368   Data          22  ff.o(.constdata)
    .constdata                               0x0802a380   Section      112  exfuns.o(.constdata)
    .constdata                               0x0802a3f0   Section      960  mycc936.o(.constdata)
    tbl_lower                                0x0802a3f0   Data         480  mycc936.o(.constdata)
    tbl_upper                                0x0802a5d0   Data         480  mycc936.o(.constdata)
    .constdata                               0x0802a7b0   Section       40  _printf_hex_int.o(.constdata)
    uc_hextab                                0x0802a7b0   Data          20  _printf_hex_int.o(.constdata)
    lc_hextab                                0x0802a7c4   Data          20  _printf_hex_int.o(.constdata)
    .constdata                               0x0802a7d8   Section       17  __printf_flags_ss_wp.o(.constdata)
    maptable                                 0x0802a7d8   Data          17  __printf_flags_ss_wp.o(.constdata)
    .conststring                             0x0802a7ec   Section       40  usmart.o(.conststring)
    .conststring                             0x0802a814   Section      263  usmart_config.o(.conststring)
    .conststring                             0x0802a91c   Section       68  etharp.o(.conststring)
    .conststring                             0x0802a960   Section      140  dhcp.o(.conststring)
    .conststring                             0x0802a9ec   Section      160  memp.o(.conststring)
    .conststring                             0x0802aa8c   Section      109  tcp.o(.conststring)
    .conststring                             0x0802aafc   Section       85  tcp_out.o(.conststring)
    .conststring                             0x0802ab54   Section       68  exfuns.o(.conststring)
    locale$$data                             0x0802abb8   Section      272  lc_ctype_c.o(locale$$data)
    __lcctype_c_name                         0x0802abbc   Data           2  lc_ctype_c.o(locale$$data)
    __lcctype_c_start                        0x0802abc4   Data           0  lc_ctype_c.o(locale$$data)
    __lcctype_c_end                          0x0802acc8   Data           0  lc_ctype_c.o(locale$$data)
    .ARM.__AT_0x10000000                     0x10000000   Section    61440  malloc.o(.ARM.__AT_0x10000000)
    .ARM.__AT_0x1000F000                     0x1000f000   Section     3840  malloc.o(.ARM.__AT_0x1000F000)
    .data                                    0x20000000   Section       34  main.o(.data)
    .data                                    0x20000024   Section       20  system_stm32f4xx.o(.data)
    .data                                    0x20000038   Section       32  ihome_function.o(.data)
    .data                                    0x20000058   Section       32  camera.o(.data)
    .data                                    0x20000078   Section        8  timer.o(.data)
    .data                                    0x20000080   Section        4  lcd.o(.data)
    .data                                    0x20000084   Section       16  lan8720.o(.data)
    .data                                    0x20000094   Section        8  dcmi.o(.data)
    .data                                    0x2000009c   Section        2  w25qxx.o(.data)
    .data                                    0x200000a0   Section       16  sdio_sdcard.o(.data)
    CardType                                 0x200000a0   Data           1  sdio_sdcard.o(.data)
    RCA                                      0x200000a4   Data           4  sdio_sdcard.o(.data)
    DeviceMode                               0x200000a8   Data           1  sdio_sdcard.o(.data)
    StopCondition                            0x200000a9   Data           1  sdio_sdcard.o(.data)
    .data                                    0x200000b0   Section       16  stm32f4xx_rcc.o(.data)
    APBAHBPrescTable                         0x200000b0   Data          16  stm32f4xx_rcc.o(.data)
    .data                                    0x200000c0   Section       16  stm32f4x7_eth.o(.data)
    .data                                    0x200000d0   Section        4  delay.o(.data)
    fac_us                                   0x200000d0   Data           1  delay.o(.data)
    fac_ms                                   0x200000d2   Data           2  delay.o(.data)
    .data                                    0x200000d4   Section        6  usart.o(.data)
    .data                                    0x200000dc   Section       28  usmart.o(.data)
    .data                                    0x200000f8   Section      292  usmart_config.o(.data)
    .data                                    0x2000021c   Section       32  lwip_comm.o(.data)
    .data                                    0x2000023c   Section       42  tcp_server.o(.data)
    ipaddr                                   0x20000260   Data           4  tcp_server.o(.data)
    port                                     0x20000264   Data           2  tcp_server.o(.data)
    .data                                    0x20000268   Section       44  tcp_client.o(.data)
    server_ipaddr                            0x20000288   Data           4  tcp_client.o(.data)
    loca_ipaddr                              0x2000028c   Data           4  tcp_client.o(.data)
    server_port                              0x20000290   Data           2  tcp_client.o(.data)
    loca_port                                0x20000292   Data           2  tcp_client.o(.data)
    .data                                    0x20000294   Section        1  etharp.o(.data)
    etharp_cached_entry                      0x20000294   Data           1  etharp.o(.data)
    .data                                    0x20000298   Section       18  ip.o(.data)
    ip_id                                    0x200002a8   Data           2  ip.o(.data)
    .data                                    0x200002ac   Section        6  ip_frag.o(.data)
    reassdatagrams                           0x200002ac   Data           4  ip_frag.o(.data)
    ip_reass_pbufcount                       0x200002b0   Data           2  ip_frag.o(.data)
    .data                                    0x200002b4   Section        4  dhcp.o(.data)
    xid                                      0x200002b4   Data           4  dhcp.o(.data)
    .data                                    0x200002b8   Section       60  memp.o(.data)
    memp_desc                                0x200002b8   Data          56  memp.o(.data)
    .data                                    0x200002f4   Section        9  netif.o(.data)
    netif_num                                0x200002fc   Data           1  netif.o(.data)
    .data                                    0x20000300   Section        4  raw.o(.data)
    raw_pcbs                                 0x20000300   Data           4  raw.o(.data)
    .data                                    0x20000304   Section       36  tcp.o(.data)
    tcp_port                                 0x20000304   Data           2  tcp.o(.data)
    tcp_timer                                0x20000321   Data           1  tcp.o(.data)
    tcp_timer_ctr                            0x20000322   Data           1  tcp.o(.data)
    iss                                      0x20000324   Data           4  tcp.o(.data)
    .data                                    0x20000328   Section       32  tcp_in.o(.data)
    tcphdr                                   0x20000328   Data           4  tcp_in.o(.data)
    iphdr                                    0x2000032c   Data           4  tcp_in.o(.data)
    seqno                                    0x20000330   Data           4  tcp_in.o(.data)
    ackno                                    0x20000334   Data           4  tcp_in.o(.data)
    flags                                    0x20000338   Data           1  tcp_in.o(.data)
    tcplen                                   0x2000033a   Data           2  tcp_in.o(.data)
    recv_flags                               0x2000033c   Data           1  tcp_in.o(.data)
    recv_data                                0x20000340   Data           4  tcp_in.o(.data)
    .data                                    0x20000348   Section        8  timers.o(.data)
    next_timeout                             0x20000348   Data           4  timers.o(.data)
    tcpip_tcp_timer_active                   0x2000034c   Data           4  timers.o(.data)
    .data                                    0x20000350   Section        8  udp.o(.data)
    udp_port                                 0x20000350   Data           2  udp.o(.data)
    .data                                    0x20000358   Section       20  mem.o(.data)
    ram                                      0x2000035c   Data           4  mem.o(.data)
    ram_end                                  0x20000360   Data           4  mem.o(.data)
    lfree                                    0x20000364   Data           4  mem.o(.data)
    mem_mutex                                0x20000368   Data           4  mem.o(.data)
    .data                                    0x2000036c   Section        8  sockets.o(.data)
    select_cb_list                           0x2000036c   Data           4  sockets.o(.data)
    select_cb_ctr                            0x20000370   Data           4  sockets.o(.data)
    .data                                    0x20000374   Section       12  tcpip.o(.data)
    tcpip_init_done                          0x20000374   Data           4  tcpip.o(.data)
    tcpip_init_done_arg                      0x20000378   Data           4  tcpip.o(.data)
    mbox                                     0x2000037c   Data           4  tcpip.o(.data)
    .data                                    0x20000380   Section       96  os_core.o(.data)
    .data                                    0x200003e0   Section        6  os_cpu_c.o(.data)
    OSTmrCtr                                 0x200003e4   Data           2  os_cpu_c.o(.data)
    .data                                    0x200003e8   Section       36  malloc.o(.data)
    .data                                    0x2000040c   Section        2  diskio.o(.data)
    .data                                    0x2000040e   Section        2  ff.o(.data)
    Fsid                                     0x2000040e   Data           2  ff.o(.data)
    .data                                    0x20000410   Section       20  exfuns.o(.data)
    .bss                                     0x20000424   Section      512  main.o(.bss)
    .bss                                     0x20000624   Section       72  ihome_function.o(.bss)
    .bss                                     0x2000066c   Section       10  timer.o(.bss)
    .bss                                     0x20000676   Section       14  lcd.o(.bss)
    .bss                                     0x20000684   Section       14  dcmi.o(.bss)
    .bss                                     0x20000692   Section     4096  w25qxx.o(.bss)
    .bss                                     0x20001698   Section      704  sdio_sdcard.o(.bss)
    CSD_Tab                                  0x200016dc   Data          16  sdio_sdcard.o(.bss)
    CID_Tab                                  0x200016ec   Data          16  sdio_sdcard.o(.bss)
    .bss                                     0x20001958   Section       12  stm32f4x7_eth.o(.bss)
    .bss                                     0x20001964   Section      200  usart.o(.bss)
    .bss                                     0x20001a2c   Section       76  lwip_comm.o(.bss)
    .bss                                     0x20001a78   Section      120  tcp_client.o(.bss)
    .bss                                     0x20001af0   Section      200  etharp.o(.bss)
    arp_table                                0x20001af0   Data         200  etharp.o(.bss)
    .bss                                     0x20001bb8   Section       16  ip_addr.o(.bss)
    str                                      0x20001bb8   Data          16  ip_addr.o(.bss)
    .bss                                     0x20001bc8   Section       50  dhcp.o(.bss)
    .bss                                     0x20001bfc   Section       56  memp.o(.bss)
    memp_tab                                 0x20001bfc   Data          56  memp.o(.bss)
    .bss                                     0x20001c34   Section       20  tcp_in.o(.bss)
    inseg                                    0x20001c34   Data          20  tcp_in.o(.bss)
    .bss                                     0x20001c48   Section       96  sockets.o(.bss)
    sockets                                  0x20001c48   Data          96  sockets.o(.bss)
    .bss                                     0x20001ca8   Section     6824  os_core.o(.bss)
    .bss                                     0x20003760   Section    108800  malloc.o(.bss)
    .bss                                     0x2001e060   Section       12  ff.o(.bss)
    FatFs                                    0x2001e060   Data          12  ff.o(.bss)
    .bss                                     0x2001e06c   Section       80  exfuns.o(.bss)
    .bss                                     0x2001e0bc   Section       33  fontupd.o(.bss)
    .bss                                     0x2001e0e0   Section       96  libspace.o(.bss)
    HEAP                                     0x2001e140   Section      512  startup_stm32f40_41xxx.o(HEAP)
    Heap_Mem                                 0x2001e140   Data         512  startup_stm32f40_41xxx.o(HEAP)
    STACK                                    0x2001e340   Section     1024  startup_stm32f40_41xxx.o(STACK)
    Stack_Mem                                0x2001e340   Data        1024  startup_stm32f40_41xxx.o(STACK)
    __initial_sp                             0x2001e740   Data           0  startup_stm32f40_41xxx.o(STACK)
    .ARM.__AT_0x68000000                     0x68000000   Section    983040  malloc.o(.ARM.__AT_0x68000000)
    .ARM.__AT_0x680F0000                     0x680f0000   Section    61440  malloc.o(.ARM.__AT_0x680F0000)

    Global Symbols

    Symbol Name                              Value     Ov Type        Size  Object(Section)

    BuildAttributes$$THM_ISAv4$E$P$D$K$B$S$7EM$VFPi3$EXTD16$VFPS$VFMA$PE$A:L22UL41UL21$X:L11$S22US41US21$IEEE1$IW$USESV6$~STKCKD$USESV7$~SHL$OSPACE$ROPI$EBA8$UX$STANDARDLIB$REQ8$PRES8$EABIv2 0x00000000   Number         0  anon$$obj.o ABSOLUTE
    __ARM_use_no_argv                        0x00000000   Number         0  main.o ABSOLUTE
    _printf_flags                            0x00000000   Number         0  printf_stubs.o ABSOLUTE
    _printf_return_value                     0x00000000   Number         0  printf_stubs.o ABSOLUTE
    _printf_sizespec                         0x00000000   Number         0  printf_stubs.o ABSOLUTE
    _printf_widthprec                        0x00000000   Number         0  printf_stubs.o ABSOLUTE
    __ARM_exceptions_init                     - Undefined Weak Reference
    __alloca_initialize                       - Undefined Weak Reference
    __arm_preinit_                            - Undefined Weak Reference
    __cpp_initialize__aeabi_                  - Undefined Weak Reference
    __cxa_finalize                            - Undefined Weak Reference
    __sigvec_lookup                           - Undefined Weak Reference
    _atexit_init                              - Undefined Weak Reference
    _call_atexit_fns                          - Undefined Weak Reference
    _clock_init                               - Undefined Weak Reference
    _fp_trap_init                             - Undefined Weak Reference
    _fp_trap_shutdown                         - Undefined Weak Reference
    _get_lc_collate                           - Undefined Weak Reference
    _get_lc_monetary                          - Undefined Weak Reference
    _get_lc_numeric                           - Undefined Weak Reference
    _get_lc_time                              - Undefined Weak Reference
    _getenv_init                              - Undefined Weak Reference
    _handle_redirection                       - Undefined Weak Reference
    _init_alloc                               - Undefined Weak Reference
    _init_user_alloc                          - Undefined Weak Reference
    _initio                                   - Undefined Weak Reference
    _mutex_acquire                            - Undefined Weak Reference
    _mutex_release                            - Undefined Weak Reference
    _printf_mbtowc                            - Undefined Weak Reference
    _printf_truncate_signed                   - Undefined Weak Reference
    _printf_truncate_unsigned                 - Undefined Weak Reference
    _rand_init                                - Undefined Weak Reference
    _signal_finish                            - Undefined Weak Reference
    _signal_init                              - Undefined Weak Reference
    _terminate_alloc                          - Undefined Weak Reference
    _terminate_user_alloc                     - Undefined Weak Reference
    _terminateio                              - Undefined Weak Reference
    __Vectors_Size                           0x00000188   Number         0  startup_stm32f40_41xxx.o ABSOLUTE
    __Vectors                                0x08000000   Data           4  startup_stm32f40_41xxx.o(RESET)
    __Vectors_End                            0x08000188   Data           0  startup_stm32f40_41xxx.o(RESET)
    __main                                   0x08000189   Thumb Code     8  __main.o(!!!main)
    __scatterload                            0x08000191   Thumb Code     0  __scatter.o(!!!scatter)
    __scatterload_rt2                        0x08000191   Thumb Code    44  __scatter.o(!!!scatter)
    __scatterload_rt2_thumb_only             0x08000191   Thumb Code     0  __scatter.o(!!!scatter)
    __scatterload_null                       0x0800019f   Thumb Code     0  __scatter.o(!!!scatter)
    __decompress                             0x080001c5   Thumb Code    90  __dczerorl2.o(!!dczerorl2)
    __decompress1                            0x080001c5   Thumb Code     0  __dczerorl2.o(!!dczerorl2)
    __scatterload_zeroinit                   0x08000221   Thumb Code    28  __scatter_zi.o(!!handler_zi)
    _printf_d                                0x0800023d   Thumb Code     0  _printf_d.o(.ARM.Collect$$_printf_percent$$00000009)
    _printf_percent                          0x0800023d   Thumb Code     0  _printf_percent.o(.ARM.Collect$$_printf_percent$$00000000)
    _printf_u                                0x08000243   Thumb Code     0  _printf_u.o(.ARM.Collect$$_printf_percent$$0000000A)
    _printf_x                                0x08000249   Thumb Code     0  _printf_x.o(.ARM.Collect$$_printf_percent$$0000000C)
    _printf_c                                0x0800024f   Thumb Code     0  _printf_c.o(.ARM.Collect$$_printf_percent$$00000013)
    _printf_s                                0x08000255   Thumb Code     0  _printf_s.o(.ARM.Collect$$_printf_percent$$00000014)
    _printf_percent_end                      0x0800025b   Thumb Code     0  _printf_percent_end.o(.ARM.Collect$$_printf_percent$$00000017)
    __rt_lib_init                            0x0800025f   Thumb Code     0  libinit.o(.ARM.Collect$$libinit$$00000000)
    __rt_lib_init_fp_1                       0x08000261   Thumb Code     0  libinit2.o(.ARM.Collect$$libinit$$00000001)
    __rt_lib_init_heap_1                     0x08000265   Thumb Code     0  libinit2.o(.ARM.Collect$$libinit$$0000000A)
    __rt_lib_init_lc_common                  0x08000265   Thumb Code     0  libinit2.o(.ARM.Collect$$libinit$$0000000F)
    __rt_lib_init_preinit_1                  0x08000265   Thumb Code     0  libinit2.o(.ARM.Collect$$libinit$$00000004)
    __rt_lib_init_rand_1                     0x08000265   Thumb Code     0  libinit2.o(.ARM.Collect$$libinit$$0000000E)
    __rt_lib_init_user_alloc_1               0x08000265   Thumb Code     0  libinit2.o(.ARM.Collect$$libinit$$0000000C)
    __rt_lib_init_lc_collate_1               0x0800026b   Thumb Code     0  libinit2.o(.ARM.Collect$$libinit$$00000011)
    __rt_lib_init_lc_ctype_2                 0x0800026b   Thumb Code     0  libinit2.o(.ARM.Collect$$libinit$$00000012)
    __rt_lib_init_alloca_1                   0x08000277   Thumb Code     0  libinit2.o(.ARM.Collect$$libinit$$0000002E)
    __rt_lib_init_argv_1                     0x08000277   Thumb Code     0  libinit2.o(.ARM.Collect$$libinit$$0000002C)
    __rt_lib_init_atexit_1                   0x08000277   Thumb Code     0  libinit2.o(.ARM.Collect$$libinit$$0000001B)
    __rt_lib_init_clock_1                    0x08000277   Thumb Code     0  libinit2.o(.ARM.Collect$$libinit$$00000021)
    __rt_lib_init_cpp_1                      0x08000277   Thumb Code     0  libinit2.o(.ARM.Collect$$libinit$$00000032)
    __rt_lib_init_exceptions_1               0x08000277   Thumb Code     0  libinit2.o(.ARM.Collect$$libinit$$00000030)
    __rt_lib_init_fp_trap_1                  0x08000277   Thumb Code     0  libinit2.o(.ARM.Collect$$libinit$$0000001F)
    __rt_lib_init_getenv_1                   0x08000277   Thumb Code     0  libinit2.o(.ARM.Collect$$libinit$$00000023)
    __rt_lib_init_lc_ctype_1                 0x08000277   Thumb Code     0  libinit2.o(.ARM.Collect$$libinit$$00000013)
    __rt_lib_init_lc_monetary_1              0x08000277   Thumb Code     0  libinit2.o(.ARM.Collect$$libinit$$00000015)
    __rt_lib_init_lc_numeric_1               0x08000277   Thumb Code     0  libinit2.o(.ARM.Collect$$libinit$$00000017)
    __rt_lib_init_lc_time_1                  0x08000277   Thumb Code     0  libinit2.o(.ARM.Collect$$libinit$$00000019)
    __rt_lib_init_return                     0x08000277   Thumb Code     0  libinit2.o(.ARM.Collect$$libinit$$00000033)
    __rt_lib_init_signal_1                   0x08000277   Thumb Code     0  libinit2.o(.ARM.Collect$$libinit$$0000001D)
    __rt_lib_init_stdio_1                    0x08000277   Thumb Code     0  libinit2.o(.ARM.Collect$$libinit$$00000025)
    __rt_lib_shutdown                        0x08000279   Thumb Code     0  libshutdown.o(.ARM.Collect$$libshutdown$$00000000)
    __rt_lib_shutdown_fp_trap_1              0x0800027b   Thumb Code     0  libshutdown2.o(.ARM.Collect$$libshutdown$$00000006)
    __rt_lib_shutdown_heap_1                 0x0800027b   Thumb Code     0  libshutdown2.o(.ARM.Collect$$libshutdown$$0000000E)
    __rt_lib_shutdown_return                 0x0800027b   Thumb Code     0  libshutdown2.o(.ARM.Collect$$libshutdown$$0000000F)
    __rt_lib_shutdown_signal_1               0x0800027b   Thumb Code     0  libshutdown2.o(.ARM.Collect$$libshutdown$$00000009)
    __rt_lib_shutdown_stdio_1                0x0800027b   Thumb Code     0  libshutdown2.o(.ARM.Collect$$libshutdown$$00000003)
    __rt_lib_shutdown_user_alloc_1           0x0800027b   Thumb Code     0  libshutdown2.o(.ARM.Collect$$libshutdown$$0000000B)
    __rt_entry                               0x0800027d   Thumb Code     0  __rtentry.o(.ARM.Collect$$rtentry$$00000000)
    __rt_entry_presh_1                       0x0800027d   Thumb Code     0  __rtentry2.o(.ARM.Collect$$rtentry$$00000002)
    __rt_entry_sh                            0x0800027d   Thumb Code     0  __rtentry4.o(.ARM.Collect$$rtentry$$00000004)
    __rt_entry_li                            0x08000283   Thumb Code     0  __rtentry2.o(.ARM.Collect$$rtentry$$0000000A)
    __rt_entry_postsh_1                      0x08000283   Thumb Code     0  __rtentry2.o(.ARM.Collect$$rtentry$$00000009)
    __rt_entry_main                          0x08000287   Thumb Code     0  __rtentry2.o(.ARM.Collect$$rtentry$$0000000D)
    __rt_entry_postli_1                      0x08000287   Thumb Code     0  __rtentry2.o(.ARM.Collect$$rtentry$$0000000C)
    __rt_exit                                0x0800028f   Thumb Code     0  rtexit.o(.ARM.Collect$$rtexit$$00000000)
    __rt_exit_ls                             0x08000291   Thumb Code     0  rtexit2.o(.ARM.Collect$$rtexit$$00000003)
    __rt_exit_prels_1                        0x08000291   Thumb Code     0  rtexit2.o(.ARM.Collect$$rtexit$$00000002)
    __rt_exit_exit                           0x08000295   Thumb Code     0  rtexit2.o(.ARM.Collect$$rtexit$$00000004)
    WFI_SET                                  0x0800029d   Thumb Code     2  sys.o(.emb_text)
    INTX_DISABLE                             0x0800029f   Thumb Code     4  sys.o(.emb_text)
    INTX_ENABLE                              0x080002a3   Thumb Code     4  sys.o(.emb_text)
    MSR_MSP                                  0x080002a7   Thumb Code     6  sys.o(.emb_text)
    start_task                               0x080002ad   Thumb Code   190  main.o(.text)
    main                                     0x0800036b   Thumb Code   508  main.o(.text)
    NMI_Handler                              0x08000679   Thumb Code     2  stm32f4xx_it.o(.text)
    HardFault_Handler                        0x0800067b   Thumb Code     4  stm32f4xx_it.o(.text)
    MemManage_Handler                        0x0800067f   Thumb Code     4  stm32f4xx_it.o(.text)
    BusFault_Handler                         0x08000683   Thumb Code     4  stm32f4xx_it.o(.text)
    UsageFault_Handler                       0x08000687   Thumb Code     4  stm32f4xx_it.o(.text)
    DebugMon_Handler                         0x0800068b   Thumb Code     2  stm32f4xx_it.o(.text)
    SystemInit                               0x08000769   Thumb Code    88  system_stm32f4xx.o(.text)
    SystemCoreClockUpdate                    0x080007c1   Thumb Code   174  system_stm32f4xx.o(.text)
    camera_task                              0x0800089d   Thumb Code   960  ihome_function.o(.text)
    led_task                                 0x08000c5d   Thumb Code  1608  ihome_function.o(.text)
    dht11_task                               0x080012a5   Thumb Code   916  ihome_function.o(.text)
    camera_Init                              0x080016e5   Thumb Code   258  camera.o(.text)
    jpeg_data_process                        0x080017e7   Thumb Code   176  camera.o(.text)
    jpeg_dcmi_rx_callback                    0x08001897   Thumb Code   102  camera.o(.text)
    sw_ov2640_mode                           0x080018fd   Thumb Code    40  camera.o(.text)
    sw_sdcard_mode                           0x08001925   Thumb Code    40  camera.o(.text)
    camera_new_pathname                      0x0800194d   Thumb Code    74  camera.o(.text)
    ov2640_jpg_photo                         0x08001997   Thumb Code   526  camera.o(.text)
    ov2640_jpg_send                          0x08001ba5   Thumb Code   198  camera.o(.text)
    LED_Init                                 0x08001c89   Thumb Code   104  led.o(.text)
    TIM3_Int_Init                            0x08001cf9   Thumb Code    88  timer.o(.text)
    TIM3_IRQHandler                          0x08001d51   Thumb Code    20  timer.o(.text)
    TIM5_CH1_Cap_Init                        0x08001d65   Thumb Code   170  timer.o(.text)
    TIM5_IRQHandler                          0x08001e0f   Thumb Code   194  timer.o(.text)
    LCD_WR_REG                               0x08001ee9   Thumb Code    18  lcd.o(.text)
    LCD_WR_DATA                              0x08001efb   Thumb Code    20  lcd.o(.text)
    LCD_RD_DATA                              0x08001f0f   Thumb Code    16  lcd.o(.text)
    LCD_WriteReg                             0x08001f1f   Thumb Code    14  lcd.o(.text)
    LCD_ReadReg                              0x08001f2d   Thumb Code    22  lcd.o(.text)
    LCD_WriteRAM_Prepare                     0x08001f43   Thumb Code    10  lcd.o(.text)
    LCD_WriteRAM                             0x08001f4d   Thumb Code     8  lcd.o(.text)
    LCD_BGR2RGB                              0x08001f55   Thumb Code    26  lcd.o(.text)
    opt_delay                                0x08001f6f   Thumb Code    14  lcd.o(.text)
    LCD_SetCursor                            0x08001f7d   Thumb Code   418  lcd.o(.text)
    LCD_ReadPoint                            0x0800211f   Thumb Code   360  lcd.o(.text)
    LCD_DisplayOn                            0x08002287   Thumb Code   102  lcd.o(.text)
    LCD_DisplayOff                           0x080022ed   Thumb Code    90  lcd.o(.text)
    LCD_Scan_Dir                             0x08002347   Thumb Code   744  lcd.o(.text)
    LCD_DrawPoint                            0x0800262f   Thumb Code    28  lcd.o(.text)
    LCD_Fast_DrawPoint                       0x0800264b   Thumb Code   388  lcd.o(.text)
    LCD_SSD_BackLightSet                     0x080027cf   Thumb Code    88  lcd.o(.text)
    LCD_Display_Dir                          0x08002827   Thumb Code   444  lcd.o(.text)
    LCD_Set_Window                           0x080029e3   Thumb Code   546  lcd.o(.text)
    LCD_Clear                                0x08002c05   Thumb Code   100  lcd.o(.text)
    LCD_Init                                 0x08002c69   Thumb Code 14696  lcd.o(.text)
    LCD_Fill                                 0x080065d1   Thumb Code   180  lcd.o(.text)
    LCD_Color_Fill                           0x08006685   Thumb Code   100  lcd.o(.text)
    LCD_DrawLine                             0x080066e9   Thumb Code   176  lcd.o(.text)
    LCD_DrawRectangle                        0x08006799   Thumb Code    60  lcd.o(.text)
    LCD_Draw_Circle                          0x080067d5   Thumb Code   152  lcd.o(.text)
    LCD_ShowChar                             0x0800686d   Thumb Code   272  lcd.o(.text)
    LCD_Pow                                  0x0800697d   Thumb Code    22  lcd.o(.text)
    LCD_ShowNum                              0x08006993   Thumb Code   148  lcd.o(.text)
    LCD_ShowxNum                             0x08006a27   Thumb Code   220  lcd.o(.text)
    LCD_ShowString                           0x08006b03   Thumb Code   102  lcd.o(.text)
    ETH_MACDMA_Config                        0x08006b69   Thumb Code   136  lan8720.o(.text)
    LAN8720_Init                             0x08006c11   Thumb Code   250  lan8720.o(.text)
    LAN8720_Get_Speed                        0x08006d0b   Thumb Code    18  lan8720.o(.text)
    ETH_IRQHandler                           0x08006d1d   Thumb Code    36  lan8720.o(.text)
    ETH_Rx_Packet                            0x08006d41   Thumb Code   148  lan8720.o(.text)
    ETH_Tx_Packet                            0x08006dd5   Thumb Code    94  lan8720.o(.text)
    ETH_GetCurrentTxBuffer                   0x08006e33   Thumb Code     8  lan8720.o(.text)
    ETH_Mem_Free                             0x08006e3b   Thumb Code    44  lan8720.o(.text)
    ETH_Mem_Malloc                           0x08006e67   Thumb Code    90  lan8720.o(.text)
    FSMC_SRAM_Init                           0x08006ef9   Thumb Code   694  sram.o(.text)
    FSMC_SRAM_WriteBuffer                    0x080071af   Thumb Code    24  sram.o(.text)
    FSMC_SRAM_ReadBuffer                     0x080071c7   Thumb Code    22  sram.o(.text)
    fsmc_sram_test                           0x080071dd   Thumb Code   162  sram.o(.text)
    DHT11_Rst                                0x080072ad   Thumb Code    52  dht11.o(.text)
    DHT11_Check                              0x080072e1   Thumb Code    92  dht11.o(.text)
    DHT11_Read_Bit                           0x0800733d   Thumb Code    76  dht11.o(.text)
    DHT11_Read_Byte                          0x08007389   Thumb Code    30  dht11.o(.text)
    DHT11_Read_Data                          0x080073a7   Thumb Code    88  dht11.o(.text)
    DHT11_Init                               0x080073ff   Thumb Code    54  dht11.o(.text)
    Lsens_Init                               0x08007441   Thumb Code    40  lsens.o(.text)
    Lsens_Get_Val                            0x08007469   Thumb Code    58  lsens.o(.text)
    Adc3_Init                                0x080074a9   Thumb Code    92  adc3.o(.text)
    Get_Adc3                                 0x08007505   Thumb Code    44  adc3.o(.text)
    TIM14_PWM_Init                           0x08007535   Thumb Code   162  pwm.o(.text)
    BEEP_Init                                0x080075e1   Thumb Code    60  beep.o(.text)
    DCMI_IRQHandler                          0x08007621   Thumb Code    50  dcmi.o(.text)
    DCMI_DMA_Init                            0x08007653   Thumb Code   172  dcmi.o(.text)
    DMA2_Stream1_IRQHandler                  0x080076ff   Thumb Code    30  dcmi.o(.text)
    My_DCMI_Init                             0x0800771d   Thumb Code   280  dcmi.o(.text)
    DCMI_Start                               0x08007835   Thumb Code    30  dcmi.o(.text)
    DCMI_Stop                                0x08007853   Thumb Code    34  dcmi.o(.text)
    DCMI_Set_Window                          0x08007875   Thumb Code    74  dcmi.o(.text)
    DCMI_CR_Set                              0x080078bf   Thumb Code    58  dcmi.o(.text)
    OV2640_Init                              0x08007925   Thumb Code   232  ov2640.o(.text)
    OV2640_JPEG_Mode                         0x08007a0d   Thumb Code    66  ov2640.o(.text)
    OV2640_RGB565_Mode                       0x08007a4f   Thumb Code    36  ov2640.o(.text)
    OV2640_Auto_Exposure                     0x08007a73   Thumb Code    40  ov2640.o(.text)
    OV2640_Light_Mode                        0x08007a9b   Thumb Code   118  ov2640.o(.text)
    OV2640_Color_Saturation                  0x08007b11   Thumb Code    64  ov2640.o(.text)
    OV2640_Brightness                        0x08007b51   Thumb Code    56  ov2640.o(.text)
    OV2640_Contrast                          0x08007b89   Thumb Code   116  ov2640.o(.text)
    OV2640_Special_Effects                   0x08007bfd   Thumb Code   122  ov2640.o(.text)
    OV2640_Color_Bar                         0x08007c77   Thumb Code    40  ov2640.o(.text)
    OV2640_Window_Set                        0x08007c9f   Thumb Code   214  ov2640.o(.text)
    OV2640_OutSize_Set                       0x08007d75   Thumb Code   136  ov2640.o(.text)
    OV2640_ImageWin_Set                      0x08007dfd   Thumb Code   188  ov2640.o(.text)
    OV2640_ImageSize_Set                     0x08007eb9   Thumb Code    80  ov2640.o(.text)
    SCCB_Init                                0x08007f09   Thumb Code    78  sccb.o(.text)
    SCCB_Start                               0x08007f57   Thumb Code    42  sccb.o(.text)
    SCCB_Stop                                0x08007f81   Thumb Code    42  sccb.o(.text)
    SCCB_No_Ack                              0x08007fab   Thumb Code    56  sccb.o(.text)
    SCCB_WR_Byte                             0x08007fe3   Thumb Code   154  sccb.o(.text)
    SCCB_RD_Byte                             0x0800807d   Thumb Code   104  sccb.o(.text)
    SCCB_WR_Reg                              0x080080e5   Thumb Code    62  sccb.o(.text)
    SCCB_RD_Reg                              0x08008123   Thumb Code    78  sccb.o(.text)
    W25QXX_ReadID                            0x0800817d   Thumb Code    64  w25qxx.o(.text)
    W25QXX_Init                              0x080081bd   Thumb Code   102  w25qxx.o(.text)
    W25QXX_ReadSR                            0x08008223   Thumb Code    36  w25qxx.o(.text)
    W25QXX_Write_SR                          0x08008247   Thumb Code    32  w25qxx.o(.text)
    W25QXX_Write_Enable                      0x08008267   Thumb Code    24  w25qxx.o(.text)
    W25QXX_Write_Disable                     0x0800827f   Thumb Code    24  w25qxx.o(.text)
    W25QXX_Read                              0x08008297   Thumb Code    74  w25qxx.o(.text)
    W25QXX_Wait_Busy                         0x080082e1   Thumb Code    18  w25qxx.o(.text)
    W25QXX_Write_Page                        0x080082f3   Thumb Code    80  w25qxx.o(.text)
    W25QXX_Write_NoCheck                     0x08008343   Thumb Code    70  w25qxx.o(.text)
    W25QXX_Erase_Sector                      0x08008389   Thumb Code    70  w25qxx.o(.text)
    W25QXX_Write                             0x080083cf   Thumb Code   180  w25qxx.o(.text)
    W25QXX_Erase_Chip                        0x08008483   Thumb Code    36  w25qxx.o(.text)
    W25QXX_PowerDown                         0x080084a7   Thumb Code    30  w25qxx.o(.text)
    W25QXX_WAKEUP                            0x080084c5   Thumb Code    30  w25qxx.o(.text)
    SDIO_Register_Deinit                     0x08008505   Thumb Code    48  sdio_sdcard.o(.text)
    SD_SetDeviceMode                         0x08008535   Thumb Code    20  sdio_sdcard.o(.text)
    SDIO_Clock_Set                           0x08008549   Thumb Code    18  sdio_sdcard.o(.text)
    CmdResp1Error                            0x0800855b   Thumb Code    96  sdio_sdcard.o(.text)
    FindSCR                                  0x080085bb   Thumb Code   390  sdio_sdcard.o(.text)
    SDEnWideBus                              0x08008741   Thumb Code   160  sdio_sdcard.o(.text)
    SD_EnableWideBusOperation                0x080087e1   Thumb Code    98  sdio_sdcard.o(.text)
    SD_SelectDeselect                        0x08008843   Thumb Code    42  sdio_sdcard.o(.text)
    SD_GetCardInfo                           0x0800886d   Thumb Code   806  sdio_sdcard.o(.text)
    CmdResp2Error                            0x08008b93   Thumb Code    80  sdio_sdcard.o(.text)
    CmdResp6Error                            0x08008be3   Thumb Code   144  sdio_sdcard.o(.text)
    SD_InitializeCards                       0x08008c73   Thumb Code   354  sdio_sdcard.o(.text)
    CmdResp3Error                            0x08008dd5   Thumb Code    52  sdio_sdcard.o(.text)
    CmdResp7Error                            0x08008e09   Thumb Code    72  sdio_sdcard.o(.text)
    CmdError                                 0x08008e51   Thumb Code    48  sdio_sdcard.o(.text)
    SD_PowerON                               0x08008e81   Thumb Code   460  sdio_sdcard.o(.text)
    SD_Init                                  0x0800904d   Thumb Code   334  sdio_sdcard.o(.text)
    SD_PowerOFF                              0x0800919b   Thumb Code    12  sdio_sdcard.o(.text)
    SD_DMA_Config                            0x080091a7   Thumb Code   118  sdio_sdcard.o(.text)
    convert_from_bytes_to_power_of_two       0x0800921d   Thumb Code    18  sdio_sdcard.o(.text)
    SD_ReadBlock                             0x0800922f   Thumb Code   578  sdio_sdcard.o(.text)
    SD_ReadMultiBlocks                       0x08009471   Thumb Code   762  sdio_sdcard.o(.text)
    IsCardProgramming                        0x0800976b   Thumb Code   150  sdio_sdcard.o(.text)
    SD_WriteBlock                            0x08009801   Thumb Code   914  sdio_sdcard.o(.text)
    SD_WriteMultiBlocks                      0x08009b93   Thumb Code   976  sdio_sdcard.o(.text)
    SD_ProcessIRQSrc                         0x08009f63   Thumb Code   322  sdio_sdcard.o(.text)
    SDIO_IRQHandler                          0x0800a0a5   Thumb Code     8  sdio_sdcard.o(.text)
    SD_SendStatus                            0x0800a0ad   Thumb Code    74  sdio_sdcard.o(.text)
    SD_GetState                              0x0800a0f7   Thumb Code    26  sdio_sdcard.o(.text)
    SD_ReadDisk                              0x0800a111   Thumb Code   188  sdio_sdcard.o(.text)
    SD_WriteDisk                             0x0800a1cd   Thumb Code   148  sdio_sdcard.o(.text)
    SPI1_ReadWriteByte                       0x0800a265   Thumb Code    50  spi.o(.text)
    SPI1_Init                                0x0800a297   Thumb Code   186  spi.o(.text)
    SPI1_SetSpeed                            0x0800a351   Thumb Code    36  spi.o(.text)
    Reset_Handler                            0x0800a37d   Thumb Code     8  startup_stm32f40_41xxx.o(.text)
    SVC_Handler                              0x0800a38f   Thumb Code     2  startup_stm32f40_41xxx.o(.text)
    ADC_IRQHandler                           0x0800a397   Thumb Code     0  startup_stm32f40_41xxx.o(.text)
    CAN1_RX0_IRQHandler                      0x0800a397   Thumb Code     0  startup_stm32f40_41xxx.o(.text)
    CAN1_RX1_IRQHandler                      0x0800a397   Thumb Code     0  startup_stm32f40_41xxx.o(.text)
    CAN1_SCE_IRQHandler                      0x0800a397   Thumb Code     0  startup_stm32f40_41xxx.o(.text)
    CAN1_TX_IRQHandler                       0x0800a397   Thumb Code     0  startup_stm32f40_41xxx.o(.text)
    CAN2_RX0_IRQHandler                      0x0800a397   Thumb Code     0  startup_stm32f40_41xxx.o(.text)
    CAN2_RX1_IRQHandler                      0x0800a397   Thumb Code     0  startup_stm32f40_41xxx.o(.text)
    CAN2_SCE_IRQHandler                      0x0800a397   Thumb Code     0  startup_stm32f40_41xxx.o(.text)
    CAN2_TX_IRQHandler                       0x0800a397   Thumb Code     0  startup_stm32f40_41xxx.o(.text)
    CRYP_IRQHandler                          0x0800a397   Thumb Code     0  startup_stm32f40_41xxx.o(.text)
    DMA1_Stream0_IRQHandler                  0x0800a397   Thumb Code     0  startup_stm32f40_41xxx.o(.text)
    DMA1_Stream1_IRQHandler                  0x0800a397   Thumb Code     0  startup_stm32f40_41xxx.o(.text)
    DMA1_Stream2_IRQHandler                  0x0800a397   Thumb Code     0  startup_stm32f40_41xxx.o(.text)
    DMA1_Stream3_IRQHandler                  0x0800a397   Thumb Code     0  startup_stm32f40_41xxx.o(.text)
    DMA1_Stream4_IRQHandler                  0x0800a397   Thumb Code     0  startup_stm32f40_41xxx.o(.text)
    DMA1_Stream5_IRQHandler                  0x0800a397   Thumb Code     0  startup_stm32f40_41xxx.o(.text)
    DMA1_Stream6_IRQHandler                  0x0800a397   Thumb Code     0  startup_stm32f40_41xxx.o(.text)
    DMA1_Stream7_IRQHandler                  0x0800a397   Thumb Code     0  startup_stm32f40_41xxx.o(.text)
    DMA2_Stream0_IRQHandler                  0x0800a397   Thumb Code     0  startup_stm32f40_41xxx.o(.text)
    DMA2_Stream2_IRQHandler                  0x0800a397   Thumb Code     0  startup_stm32f40_41xxx.o(.text)
    DMA2_Stream3_IRQHandler                  0x0800a397   Thumb Code     0  startup_stm32f40_41xxx.o(.text)
    DMA2_Stream4_IRQHandler                  0x0800a397   Thumb Code     0  startup_stm32f40_41xxx.o(.text)
    DMA2_Stream5_IRQHandler                  0x0800a397   Thumb Code     0  startup_stm32f40_41xxx.o(.text)
    DMA2_Stream6_IRQHandler                  0x0800a397   Thumb Code     0  startup_stm32f40_41xxx.o(.text)
    DMA2_Stream7_IRQHandler                  0x0800a397   Thumb Code     0  startup_stm32f40_41xxx.o(.text)
    ETH_WKUP_IRQHandler                      0x0800a397   Thumb Code     0  startup_stm32f40_41xxx.o(.text)
    EXTI0_IRQHandler                         0x0800a397   Thumb Code     0  startup_stm32f40_41xxx.o(.text)
    EXTI15_10_IRQHandler                     0x0800a397   Thumb Code     0  startup_stm32f40_41xxx.o(.text)
    EXTI1_IRQHandler                         0x0800a397   Thumb Code     0  startup_stm32f40_41xxx.o(.text)
    EXTI2_IRQHandler                         0x0800a397   Thumb Code     0  startup_stm32f40_41xxx.o(.text)
    EXTI3_IRQHandler                         0x0800a397   Thumb Code     0  startup_stm32f40_41xxx.o(.text)
    EXTI4_IRQHandler                         0x0800a397   Thumb Code     0  startup_stm32f40_41xxx.o(.text)
    EXTI9_5_IRQHandler                       0x0800a397   Thumb Code     0  startup_stm32f40_41xxx.o(.text)
    FLASH_IRQHandler                         0x0800a397   Thumb Code     0  startup_stm32f40_41xxx.o(.text)
    FPU_IRQHandler                           0x0800a397   Thumb Code     0  startup_stm32f40_41xxx.o(.text)
    FSMC_IRQHandler                          0x0800a397   Thumb Code     0  startup_stm32f40_41xxx.o(.text)
    HASH_RNG_IRQHandler                      0x0800a397   Thumb Code     0  startup_stm32f40_41xxx.o(.text)
    I2C1_ER_IRQHandler                       0x0800a397   Thumb Code     0  startup_stm32f40_41xxx.o(.text)
    I2C1_EV_IRQHandler                       0x0800a397   Thumb Code     0  startup_stm32f40_41xxx.o(.text)
    I2C2_ER_IRQHandler                       0x0800a397   Thumb Code     0  startup_stm32f40_41xxx.o(.text)
    I2C2_EV_IRQHandler                       0x0800a397   Thumb Code     0  startup_stm32f40_41xxx.o(.text)
    I2C3_ER_IRQHandler                       0x0800a397   Thumb Code     0  startup_stm32f40_41xxx.o(.text)
    I2C3_EV_IRQHandler                       0x0800a397   Thumb Code     0  startup_stm32f40_41xxx.o(.text)
    OTG_FS_IRQHandler                        0x0800a397   Thumb Code     0  startup_stm32f40_41xxx.o(.text)
    OTG_FS_WKUP_IRQHandler                   0x0800a397   Thumb Code     0  startup_stm32f40_41xxx.o(.text)
    OTG_HS_EP1_IN_IRQHandler                 0x0800a397   Thumb Code     0  startup_stm32f40_41xxx.o(.text)
    OTG_HS_EP1_OUT_IRQHandler                0x0800a397   Thumb Code     0  startup_stm32f40_41xxx.o(.text)
    OTG_HS_IRQHandler                        0x0800a397   Thumb Code     0  startup_stm32f40_41xxx.o(.text)
    OTG_HS_WKUP_IRQHandler                   0x0800a397   Thumb Code     0  startup_stm32f40_41xxx.o(.text)
    PVD_IRQHandler                           0x0800a397   Thumb Code     0  startup_stm32f40_41xxx.o(.text)
    RCC_IRQHandler                           0x0800a397   Thumb Code     0  startup_stm32f40_41xxx.o(.text)
    RTC_Alarm_IRQHandler                     0x0800a397   Thumb Code     0  startup_stm32f40_41xxx.o(.text)
    RTC_WKUP_IRQHandler                      0x0800a397   Thumb Code     0  startup_stm32f40_41xxx.o(.text)
    SPI1_IRQHandler                          0x0800a397   Thumb Code     0  startup_stm32f40_41xxx.o(.text)
    SPI2_IRQHandler                          0x0800a397   Thumb Code     0  startup_stm32f40_41xxx.o(.text)
    SPI3_IRQHandler                          0x0800a397   Thumb Code     0  startup_stm32f40_41xxx.o(.text)
    TAMP_STAMP_IRQHandler                    0x0800a397   Thumb Code     0  startup_stm32f40_41xxx.o(.text)
    TIM1_BRK_TIM9_IRQHandler                 0x0800a397   Thumb Code     0  startup_stm32f40_41xxx.o(.text)
    TIM1_CC_IRQHandler                       0x0800a397   Thumb Code     0  startup_stm32f40_41xxx.o(.text)
    TIM1_TRG_COM_TIM11_IRQHandler            0x0800a397   Thumb Code     0  startup_stm32f40_41xxx.o(.text)
    TIM1_UP_TIM10_IRQHandler                 0x0800a397   Thumb Code     0  startup_stm32f40_41xxx.o(.text)
    TIM2_IRQHandler                          0x0800a397   Thumb Code     0  startup_stm32f40_41xxx.o(.text)
    TIM6_DAC_IRQHandler                      0x0800a397   Thumb Code     0  startup_stm32f40_41xxx.o(.text)
    TIM7_IRQHandler                          0x0800a397   Thumb Code     0  startup_stm32f40_41xxx.o(.text)
    TIM8_BRK_TIM12_IRQHandler                0x0800a397   Thumb Code     0  startup_stm32f40_41xxx.o(.text)
    TIM8_CC_IRQHandler                       0x0800a397   Thumb Code     0  startup_stm32f40_41xxx.o(.text)
    TIM8_TRG_COM_TIM14_IRQHandler            0x0800a397   Thumb Code     0  startup_stm32f40_41xxx.o(.text)
    TIM8_UP_TIM13_IRQHandler                 0x0800a397   Thumb Code     0  startup_stm32f40_41xxx.o(.text)
    UART4_IRQHandler                         0x0800a397   Thumb Code     0  startup_stm32f40_41xxx.o(.text)
    UART5_IRQHandler                         0x0800a397   Thumb Code     0  startup_stm32f40_41xxx.o(.text)
    USART2_IRQHandler                        0x0800a397   Thumb Code     0  startup_stm32f40_41xxx.o(.text)
    USART3_IRQHandler                        0x0800a397   Thumb Code     0  startup_stm32f40_41xxx.o(.text)
    USART6_IRQHandler                        0x0800a397   Thumb Code     0  startup_stm32f40_41xxx.o(.text)
    WWDG_IRQHandler                          0x0800a397   Thumb Code     0  startup_stm32f40_41xxx.o(.text)
    __user_initial_stackheap                 0x0800a399   Thumb Code     0  startup_stm32f40_41xxx.o(.text)
    NVIC_PriorityGroupConfig                 0x0800a3bd   Thumb Code    10  misc.o(.text)
    NVIC_Init                                0x0800a3c7   Thumb Code   106  misc.o(.text)
    NVIC_SetVectorTable                      0x0800a431   Thumb Code    14  misc.o(.text)
    NVIC_SystemLPConfig                      0x0800a43f   Thumb Code    34  misc.o(.text)
    SysTick_CLKSourceConfig                  0x0800a461   Thumb Code    40  misc.o(.text)
    GPIO_DeInit                              0x0800a49d   Thumb Code   268  stm32f4xx_gpio.o(.text)
    GPIO_Init                                0x0800a5a9   Thumb Code   144  stm32f4xx_gpio.o(.text)
    GPIO_StructInit                          0x0800a639   Thumb Code    18  stm32f4xx_gpio.o(.text)
    GPIO_PinLockConfig                       0x0800a64b   Thumb Code    34  stm32f4xx_gpio.o(.text)
    GPIO_ReadInputDataBit                    0x0800a66d   Thumb Code    18  stm32f4xx_gpio.o(.text)
    GPIO_ReadInputData                       0x0800a67f   Thumb Code     8  stm32f4xx_gpio.o(.text)
    GPIO_ReadOutputDataBit                   0x0800a687   Thumb Code    18  stm32f4xx_gpio.o(.text)
    GPIO_ReadOutputData                      0x0800a699   Thumb Code     8  stm32f4xx_gpio.o(.text)
    GPIO_SetBits                             0x0800a6a1   Thumb Code     4  stm32f4xx_gpio.o(.text)
    GPIO_ResetBits                           0x0800a6a5   Thumb Code     4  stm32f4xx_gpio.o(.text)
    GPIO_WriteBit                            0x0800a6a9   Thumb Code    10  stm32f4xx_gpio.o(.text)
    GPIO_Write                               0x0800a6b3   Thumb Code     4  stm32f4xx_gpio.o(.text)
    GPIO_ToggleBits                          0x0800a6b7   Thumb Code     8  stm32f4xx_gpio.o(.text)
    GPIO_PinAFConfig                         0x0800a6bf   Thumb Code    70  stm32f4xx_gpio.o(.text)
    RCC_DeInit                               0x0800a731   Thumb Code    82  stm32f4xx_rcc.o(.text)
    RCC_HSEConfig                            0x0800a783   Thumb Code    14  stm32f4xx_rcc.o(.text)
    RCC_GetFlagStatus                        0x0800a791   Thumb Code    60  stm32f4xx_rcc.o(.text)
    RCC_WaitForHSEStartUp                    0x0800a7cd   Thumb Code    56  stm32f4xx_rcc.o(.text)
    RCC_AdjustHSICalibrationValue            0x0800a805   Thumb Code    20  stm32f4xx_rcc.o(.text)
    RCC_HSICmd                               0x0800a819   Thumb Code     6  stm32f4xx_rcc.o(.text)
    RCC_LSEConfig                            0x0800a81f   Thumb Code    46  stm32f4xx_rcc.o(.text)
    RCC_LSICmd                               0x0800a84d   Thumb Code     6  stm32f4xx_rcc.o(.text)
    RCC_PLLConfig                            0x0800a853   Thumb Code    32  stm32f4xx_rcc.o(.text)
    RCC_PLLCmd                               0x0800a873   Thumb Code     6  stm32f4xx_rcc.o(.text)
    RCC_PLLI2SConfig                         0x0800a879   Thumb Code    14  stm32f4xx_rcc.o(.text)
    RCC_PLLI2SCmd                            0x0800a887   Thumb Code     6  stm32f4xx_rcc.o(.text)
    RCC_PLLSAIConfig                         0x0800a88d   Thumb Code    20  stm32f4xx_rcc.o(.text)
    RCC_PLLSAICmd                            0x0800a8a1   Thumb Code     6  stm32f4xx_rcc.o(.text)
    RCC_ClockSecuritySystemCmd               0x0800a8a7   Thumb Code     6  stm32f4xx_rcc.o(.text)
    RCC_MCO1Config                           0x0800a8ad   Thumb Code    28  stm32f4xx_rcc.o(.text)
    RCC_MCO2Config                           0x0800a8c9   Thumb Code    28  stm32f4xx_rcc.o(.text)
    RCC_SYSCLKConfig                         0x0800a8e5   Thumb Code    20  stm32f4xx_rcc.o(.text)
    RCC_GetSYSCLKSource                      0x0800a8f9   Thumb Code    12  stm32f4xx_rcc.o(.text)
    RCC_HCLKConfig                           0x0800a905   Thumb Code    20  stm32f4xx_rcc.o(.text)
    RCC_PCLK1Config                          0x0800a919   Thumb Code    20  stm32f4xx_rcc.o(.text)
    RCC_PCLK2Config                          0x0800a92d   Thumb Code    22  stm32f4xx_rcc.o(.text)
    RCC_GetClocksFreq                        0x0800a943   Thumb Code   222  stm32f4xx_rcc.o(.text)
    RCC_RTCCLKConfig                         0x0800aa21   Thumb Code    54  stm32f4xx_rcc.o(.text)
    RCC_RTCCLKCmd                            0x0800aa57   Thumb Code     8  stm32f4xx_rcc.o(.text)
    RCC_BackupResetCmd                       0x0800aa5f   Thumb Code     8  stm32f4xx_rcc.o(.text)
    RCC_I2SCLKConfig                         0x0800aa67   Thumb Code     6  stm32f4xx_rcc.o(.text)
    RCC_SAIPLLI2SClkDivConfig                0x0800aa6d   Thumb Code    26  stm32f4xx_rcc.o(.text)
    RCC_SAIPLLSAIClkDivConfig                0x0800aa87   Thumb Code    28  stm32f4xx_rcc.o(.text)
    RCC_SAIBlockACLKConfig                   0x0800aaa3   Thumb Code    20  stm32f4xx_rcc.o(.text)
    RCC_SAIBlockBCLKConfig                   0x0800aab7   Thumb Code    20  stm32f4xx_rcc.o(.text)
    RCC_LTDCCLKDivConfig                     0x0800aacb   Thumb Code    20  stm32f4xx_rcc.o(.text)
    RCC_TIMCLKPresConfig                     0x0800aadf   Thumb Code     6  stm32f4xx_rcc.o(.text)
    RCC_AHB1PeriphClockCmd                   0x0800aae5   Thumb Code    34  stm32f4xx_rcc.o(.text)
    RCC_AHB2PeriphClockCmd                   0x0800ab07   Thumb Code    78  stm32f4xx_rcc.o(.text)
    RCC_AHB3PeriphClockCmd                   0x0800ab55   Thumb Code    34  stm32f4xx_rcc.o(.text)
    RCC_APB1PeriphClockCmd                   0x0800ab77   Thumb Code    34  stm32f4xx_rcc.o(.text)
    RCC_APB2PeriphClockCmd                   0x0800ab99   Thumb Code    34  stm32f4xx_rcc.o(.text)
    RCC_AHB1PeriphResetCmd                   0x0800abbb   Thumb Code    34  stm32f4xx_rcc.o(.text)
    RCC_AHB2PeriphResetCmd                   0x0800abdd   Thumb Code    34  stm32f4xx_rcc.o(.text)
    RCC_AHB3PeriphResetCmd                   0x0800abff   Thumb Code    34  stm32f4xx_rcc.o(.text)
    RCC_APB1PeriphResetCmd                   0x0800ac21   Thumb Code    34  stm32f4xx_rcc.o(.text)
    RCC_APB2PeriphResetCmd                   0x0800ac43   Thumb Code    34  stm32f4xx_rcc.o(.text)
    RCC_AHB1PeriphClockLPModeCmd             0x0800ac65   Thumb Code    34  stm32f4xx_rcc.o(.text)
    RCC_AHB2PeriphClockLPModeCmd             0x0800ac87   Thumb Code    34  stm32f4xx_rcc.o(.text)
    RCC_AHB3PeriphClockLPModeCmd             0x0800aca9   Thumb Code    34  stm32f4xx_rcc.o(.text)
    RCC_APB1PeriphClockLPModeCmd             0x0800accb   Thumb Code    34  stm32f4xx_rcc.o(.text)
    RCC_APB2PeriphClockLPModeCmd             0x0800aced   Thumb Code    34  stm32f4xx_rcc.o(.text)
    RCC_LSEModeConfig                        0x0800ad0f   Thumb Code    40  stm32f4xx_rcc.o(.text)
    RCC_ITConfig                             0x0800ad37   Thumb Code    34  stm32f4xx_rcc.o(.text)
    RCC_ClearFlag                            0x0800ad59   Thumb Code    18  stm32f4xx_rcc.o(.text)
    RCC_GetITStatus                          0x0800ad6b   Thumb Code    22  stm32f4xx_rcc.o(.text)
    RCC_ClearITPendingBit                    0x0800ad81   Thumb Code     8  stm32f4xx_rcc.o(.text)
    SYSCFG_DeInit                            0x0800ad8d   Thumb Code    22  stm32f4xx_syscfg.o(.text)
    SYSCFG_MemoryRemapConfig                 0x0800ada3   Thumb Code     6  stm32f4xx_syscfg.o(.text)
    SYSCFG_MemorySwappingBank                0x0800ada9   Thumb Code     6  stm32f4xx_syscfg.o(.text)
    SYSCFG_EXTILineConfig                    0x0800adaf   Thumb Code    66  stm32f4xx_syscfg.o(.text)
    SYSCFG_ETH_MediaInterfaceConfig          0x0800adf1   Thumb Code     8  stm32f4xx_syscfg.o(.text)
    SYSCFG_CompensationCellCmd               0x0800adf9   Thumb Code     6  stm32f4xx_syscfg.o(.text)
    SYSCFG_GetCompensationCellStatus         0x0800adff   Thumb Code    22  stm32f4xx_syscfg.o(.text)
    TIM_DeInit                               0x0800ae21   Thumb Code   346  stm32f4xx_tim.o(.text)
    TIM_TimeBaseInit                         0x0800af7b   Thumb Code   104  stm32f4xx_tim.o(.text)
    TIM_TimeBaseStructInit                   0x0800afe3   Thumb Code    18  stm32f4xx_tim.o(.text)
    TIM_PrescalerConfig                      0x0800aff5   Thumb Code     6  stm32f4xx_tim.o(.text)
    TIM_CounterModeConfig                    0x0800affb   Thumb Code    18  stm32f4xx_tim.o(.text)
    TIM_SetCounter                           0x0800b00d   Thumb Code     4  stm32f4xx_tim.o(.text)
    TIM_SetAutoreload                        0x0800b011   Thumb Code     4  stm32f4xx_tim.o(.text)
    TIM_GetCounter                           0x0800b015   Thumb Code     6  stm32f4xx_tim.o(.text)
    TIM_GetPrescaler                         0x0800b01b   Thumb Code     6  stm32f4xx_tim.o(.text)
    TIM_UpdateDisableConfig                  0x0800b021   Thumb Code    24  stm32f4xx_tim.o(.text)
    TIM_UpdateRequestConfig                  0x0800b039   Thumb Code    24  stm32f4xx_tim.o(.text)
    TIM_ARRPreloadConfig                     0x0800b051   Thumb Code    24  stm32f4xx_tim.o(.text)
    TIM_SelectOnePulseMode                   0x0800b069   Thumb Code    18  stm32f4xx_tim.o(.text)
    TIM_SetClockDivision                     0x0800b07b   Thumb Code    18  stm32f4xx_tim.o(.text)
    TIM_Cmd                                  0x0800b08d   Thumb Code    24  stm32f4xx_tim.o(.text)
    TIM_OC1Init                              0x0800b0a5   Thumb Code   114  stm32f4xx_tim.o(.text)
    TIM_OC2Init                              0x0800b117   Thumb Code   154  stm32f4xx_tim.o(.text)
    TIM_OC3Init                              0x0800b1b1   Thumb Code   204  stm32f4xx_tim.o(.text)
    TIM_OC4Init                              0x0800b27d   Thumb Code   112  stm32f4xx_tim.o(.text)
    TIM_OCStructInit                         0x0800b2ed   Thumb Code    20  stm32f4xx_tim.o(.text)
    TIM_SelectOCxM                           0x0800b301   Thumb Code    86  stm32f4xx_tim.o(.text)
    TIM_SetCompare1                          0x0800b357   Thumb Code     4  stm32f4xx_tim.o(.text)
    TIM_SetCompare2                          0x0800b35b   Thumb Code     4  stm32f4xx_tim.o(.text)
    TIM_SetCompare3                          0x0800b35f   Thumb Code     4  stm32f4xx_tim.o(.text)
    TIM_SetCompare4                          0x0800b363   Thumb Code     4  stm32f4xx_tim.o(.text)
    TIM_ForcedOC1Config                      0x0800b367   Thumb Code    18  stm32f4xx_tim.o(.text)
    TIM_ForcedOC2Config                      0x0800b379   Thumb Code    26  stm32f4xx_tim.o(.text)
    TIM_ForcedOC3Config                      0x0800b393   Thumb Code    18  stm32f4xx_tim.o(.text)
    TIM_ForcedOC4Config                      0x0800b3a5   Thumb Code    26  stm32f4xx_tim.o(.text)
    TIM_OC1PreloadConfig                     0x0800b3bf   Thumb Code    18  stm32f4xx_tim.o(.text)
    TIM_OC2PreloadConfig                     0x0800b3d1   Thumb Code    26  stm32f4xx_tim.o(.text)
    TIM_OC3PreloadConfig                     0x0800b3eb   Thumb Code    18  stm32f4xx_tim.o(.text)
    TIM_OC4PreloadConfig                     0x0800b3fd   Thumb Code    26  stm32f4xx_tim.o(.text)
    TIM_OC1FastConfig                        0x0800b417   Thumb Code    18  stm32f4xx_tim.o(.text)
    TIM_OC2FastConfig                        0x0800b429   Thumb Code    26  stm32f4xx_tim.o(.text)
    TIM_OC3FastConfig                        0x0800b443   Thumb Code    18  stm32f4xx_tim.o(.text)
    TIM_OC4FastConfig                        0x0800b455   Thumb Code    26  stm32f4xx_tim.o(.text)
    TIM_ClearOC1Ref                          0x0800b46f   Thumb Code    18  stm32f4xx_tim.o(.text)
    TIM_ClearOC2Ref                          0x0800b481   Thumb Code    24  stm32f4xx_tim.o(.text)
    TIM_ClearOC3Ref                          0x0800b499   Thumb Code    18  stm32f4xx_tim.o(.text)
    TIM_ClearOC4Ref                          0x0800b4ab   Thumb Code    24  stm32f4xx_tim.o(.text)
    TIM_OC1PolarityConfig                    0x0800b4c3   Thumb Code    18  stm32f4xx_tim.o(.text)
    TIM_OC1NPolarityConfig                   0x0800b4d5   Thumb Code    18  stm32f4xx_tim.o(.text)
    TIM_OC2PolarityConfig                    0x0800b4e7   Thumb Code    26  stm32f4xx_tim.o(.text)
    TIM_OC2NPolarityConfig                   0x0800b501   Thumb Code    26  stm32f4xx_tim.o(.text)
    TIM_OC3PolarityConfig                    0x0800b51b   Thumb Code    26  stm32f4xx_tim.o(.text)
    TIM_OC3NPolarityConfig                   0x0800b535   Thumb Code    26  stm32f4xx_tim.o(.text)
    TIM_OC4PolarityConfig                    0x0800b54f   Thumb Code    26  stm32f4xx_tim.o(.text)
    TIM_CCxCmd                               0x0800b569   Thumb Code    30  stm32f4xx_tim.o(.text)
    TIM_CCxNCmd                              0x0800b587   Thumb Code    30  stm32f4xx_tim.o(.text)
    TIM_SetIC4Prescaler                      0x0800b5a5   Thumb Code    26  stm32f4xx_tim.o(.text)
    TIM_SetIC3Prescaler                      0x0800b60f   Thumb Code    18  stm32f4xx_tim.o(.text)
    TIM_SetIC2Prescaler                      0x0800b669   Thumb Code    26  stm32f4xx_tim.o(.text)
    TIM_SetIC1Prescaler                      0x0800b6dd   Thumb Code    18  stm32f4xx_tim.o(.text)
    TIM_ICInit                               0x0800b729   Thumb Code   110  stm32f4xx_tim.o(.text)
    TIM_ICStructInit                         0x0800b797   Thumb Code    18  stm32f4xx_tim.o(.text)
    TIM_PWMIConfig                           0x0800b7a9   Thumb Code   124  stm32f4xx_tim.o(.text)
    TIM_GetCapture1                          0x0800b825   Thumb Code     6  stm32f4xx_tim.o(.text)
    TIM_GetCapture2                          0x0800b82b   Thumb Code     6  stm32f4xx_tim.o(.text)
    TIM_GetCapture3                          0x0800b831   Thumb Code     6  stm32f4xx_tim.o(.text)
    TIM_GetCapture4                          0x0800b837   Thumb Code     6  stm32f4xx_tim.o(.text)
    TIM_BDTRConfig                           0x0800b83d   Thumb Code    32  stm32f4xx_tim.o(.text)
    TIM_BDTRStructInit                       0x0800b85d   Thumb Code    18  stm32f4xx_tim.o(.text)
    TIM_CtrlPWMOutputs                       0x0800b86f   Thumb Code    30  stm32f4xx_tim.o(.text)
    TIM_SelectCOM                            0x0800b88d   Thumb Code    24  stm32f4xx_tim.o(.text)
    TIM_CCPreloadControl                     0x0800b8a5   Thumb Code    24  stm32f4xx_tim.o(.text)
    TIM_ITConfig                             0x0800b8bd   Thumb Code    18  stm32f4xx_tim.o(.text)
    TIM_GenerateEvent                        0x0800b8cf   Thumb Code     4  stm32f4xx_tim.o(.text)
    TIM_GetFlagStatus                        0x0800b8d3   Thumb Code    18  stm32f4xx_tim.o(.text)
    TIM_ClearFlag                            0x0800b8e5   Thumb Code     6  stm32f4xx_tim.o(.text)
    TIM_GetITStatus                          0x0800b8eb   Thumb Code    34  stm32f4xx_tim.o(.text)
    TIM_ClearITPendingBit                    0x0800b90d   Thumb Code     6  stm32f4xx_tim.o(.text)
    TIM_DMAConfig                            0x0800b913   Thumb Code    10  stm32f4xx_tim.o(.text)
    TIM_DMACmd                               0x0800b91d   Thumb Code    18  stm32f4xx_tim.o(.text)
    TIM_SelectCCDMA                          0x0800b92f   Thumb Code    24  stm32f4xx_tim.o(.text)
    TIM_InternalClockConfig                  0x0800b947   Thumb Code    12  stm32f4xx_tim.o(.text)
    TIM_SelectInputTrigger                   0x0800b953   Thumb Code    18  stm32f4xx_tim.o(.text)
    TIM_ITRxExternalClockConfig              0x0800b965   Thumb Code    24  stm32f4xx_tim.o(.text)
    TIM_TIxExternalClockConfig               0x0800b97d   Thumb Code    62  stm32f4xx_tim.o(.text)
    TIM_ETRConfig                            0x0800b9bb   Thumb Code    28  stm32f4xx_tim.o(.text)
    TIM_ETRClockMode1Config                  0x0800b9d7   Thumb Code    54  stm32f4xx_tim.o(.text)
    TIM_ETRClockMode2Config                  0x0800ba0d   Thumb Code    32  stm32f4xx_tim.o(.text)
    TIM_SelectOutputTrigger                  0x0800ba2d   Thumb Code    18  stm32f4xx_tim.o(.text)
    TIM_SelectSlaveMode                      0x0800ba3f   Thumb Code    18  stm32f4xx_tim.o(.text)
    TIM_SelectMasterSlaveMode                0x0800ba51   Thumb Code    18  stm32f4xx_tim.o(.text)
    TIM_EncoderInterfaceConfig               0x0800ba63   Thumb Code    66  stm32f4xx_tim.o(.text)
    TIM_SelectHallSensor                     0x0800baa5   Thumb Code    24  stm32f4xx_tim.o(.text)
    TIM_RemapConfig                          0x0800babd   Thumb Code     6  stm32f4xx_tim.o(.text)
    USART_DeInit                             0x0800bac5   Thumb Code   206  stm32f4xx_usart.o(.text)
    USART_Init                               0x0800bb93   Thumb Code   204  stm32f4xx_usart.o(.text)
    USART_StructInit                         0x0800bc5f   Thumb Code    24  stm32f4xx_usart.o(.text)
    USART_ClockInit                          0x0800bc77   Thumb Code    32  stm32f4xx_usart.o(.text)
    USART_ClockStructInit                    0x0800bc97   Thumb Code    12  stm32f4xx_usart.o(.text)
    USART_Cmd                                0x0800bca3   Thumb Code    24  stm32f4xx_usart.o(.text)
    USART_SetPrescaler                       0x0800bcbb   Thumb Code    16  stm32f4xx_usart.o(.text)
    USART_OverSampling8Cmd                   0x0800bccb   Thumb Code    22  stm32f4xx_usart.o(.text)
    USART_OneBitMethodCmd                    0x0800bce1   Thumb Code    24  stm32f4xx_usart.o(.text)
    USART_SendData                           0x0800bcf9   Thumb Code     8  stm32f4xx_usart.o(.text)
    USART_ReceiveData                        0x0800bd01   Thumb Code    10  stm32f4xx_usart.o(.text)
    USART_SetAddress                         0x0800bd0b   Thumb Code    18  stm32f4xx_usart.o(.text)
    USART_ReceiverWakeUpCmd                  0x0800bd1d   Thumb Code    24  stm32f4xx_usart.o(.text)
    USART_WakeUpConfig                       0x0800bd35   Thumb Code    18  stm32f4xx_usart.o(.text)
    USART_LINBreakDetectLengthConfig         0x0800bd47   Thumb Code    18  stm32f4xx_usart.o(.text)
    USART_LINCmd                             0x0800bd59   Thumb Code    24  stm32f4xx_usart.o(.text)
    USART_SendBreak                          0x0800bd71   Thumb Code    10  stm32f4xx_usart.o(.text)
    USART_HalfDuplexCmd                      0x0800bd7b   Thumb Code    24  stm32f4xx_usart.o(.text)
    USART_SetGuardTime                       0x0800bd93   Thumb Code    16  stm32f4xx_usart.o(.text)
    USART_SmartCardCmd                       0x0800bda3   Thumb Code    24  stm32f4xx_usart.o(.text)
    USART_SmartCardNACKCmd                   0x0800bdbb   Thumb Code    24  stm32f4xx_usart.o(.text)
    USART_IrDAConfig                         0x0800bdd3   Thumb Code    18  stm32f4xx_usart.o(.text)
    USART_IrDACmd                            0x0800bde5   Thumb Code    24  stm32f4xx_usart.o(.text)
    USART_DMACmd                             0x0800bdfd   Thumb Code    18  stm32f4xx_usart.o(.text)
    USART_ITConfig                           0x0800be0f   Thumb Code    74  stm32f4xx_usart.o(.text)
    USART_GetFlagStatus                      0x0800be59   Thumb Code    26  stm32f4xx_usart.o(.text)
    USART_ClearFlag                          0x0800be73   Thumb Code    18  stm32f4xx_usart.o(.text)
    USART_GetITStatus                        0x0800be85   Thumb Code   118  stm32f4xx_usart.o(.text)
    USART_ClearITPendingBit                  0x0800befb   Thumb Code    30  stm32f4xx_usart.o(.text)
    ETH_DeInit                               0x0800bf35   Thumb Code    22  stm32f4x7_eth.o(.text)
    ETH_StructInit                           0x0800bf4b   Thumb Code   178  stm32f4x7_eth.o(.text)
    ETH_WritePHYRegister                     0x0800bffd   Thumb Code    96  stm32f4x7_eth.o(.text)
    ETH_ReadPHYRegister                      0x0800c05d   Thumb Code    98  stm32f4x7_eth.o(.text)
    ETH_Init                                 0x0800c0bf   Thumb Code   620  stm32f4x7_eth.o(.text)
    ETH_DMAReceptionCmd                      0x0800c32b   Thumb Code    30  stm32f4x7_eth.o(.text)
    ETH_DMATransmissionCmd                   0x0800c349   Thumb Code    30  stm32f4x7_eth.o(.text)
    ETH_MACReceptionCmd                      0x0800c367   Thumb Code    30  stm32f4x7_eth.o(.text)
    ETH_FlushTransmitFIFO                    0x0800c385   Thumb Code    14  stm32f4x7_eth.o(.text)
    ETH_MACTransmissionCmd                   0x0800c393   Thumb Code    30  stm32f4x7_eth.o(.text)
    ETH_Start                                0x0800c3b1   Thumb Code    32  stm32f4x7_eth.o(.text)
    ETH_GetFlowControlBusyStatus             0x0800c3d1   Thumb Code    64  stm32f4x7_eth.o(.text)
    ETH_InitiatePauseControlFrame            0x0800c411   Thumb Code    14  stm32f4x7_eth.o(.text)
    ETH_BackPressureActivationCmd            0x0800c41f   Thumb Code    30  stm32f4x7_eth.o(.text)
    ETH_GetMACFlagStatus                     0x0800c43d   Thumb Code    20  stm32f4x7_eth.o(.text)
    ETH_GetMACITStatus                       0x0800c451   Thumb Code    20  stm32f4x7_eth.o(.text)
    ETH_MACITConfig                          0x0800c465   Thumb Code    26  stm32f4x7_eth.o(.text)
    ETH_MACAddressConfig                     0x0800c47f   Thumb Code    46  stm32f4x7_eth.o(.text)
    ETH_GetMACAddress                        0x0800c4ad   Thumb Code    36  stm32f4x7_eth.o(.text)
    ETH_MACAddressPerfectFilterCmd           0x0800c4d1   Thumb Code    38  stm32f4x7_eth.o(.text)
    ETH_MACAddressFilterConfig               0x0800c4f7   Thumb Code    40  stm32f4x7_eth.o(.text)
    ETH_MACAddressMaskBytesFilterConfig      0x0800c51f   Thumb Code    32  stm32f4x7_eth.o(.text)
    ETH_Get_Received_Frame                   0x0800c53f   Thumb Code    82  stm32f4x7_eth.o(.text)
    ETH_Get_Received_Frame_interrupt         0x0800c591   Thumb Code   268  stm32f4x7_eth.o(.text)
    ETH_Prepare_Transmit_Descriptors         0x0800c69d   Thumb Code   222  stm32f4x7_eth.o(.text)
    ETH_DMARxDescChainInit                   0x0800c77b   Thumb Code    82  stm32f4x7_eth.o(.text)
    ETH_CheckFrameReceived                   0x0800c7cd   Thumb Code   214  stm32f4x7_eth.o(.text)
    ETH_DMATxDescChainInit                   0x0800c8a3   Thumb Code    70  stm32f4x7_eth.o(.text)
    ETH_GetDMATxDescFlagStatus               0x0800c8e9   Thumb Code    18  stm32f4x7_eth.o(.text)
    ETH_GetDMATxDescCollisionCount           0x0800c8fb   Thumb Code    10  stm32f4x7_eth.o(.text)
    ETH_SetDMATxDescOwnBit                   0x0800c905   Thumb Code    10  stm32f4x7_eth.o(.text)
    ETH_DMATxDescTransmitITConfig            0x0800c90f   Thumb Code    22  stm32f4x7_eth.o(.text)
    ETH_DMATxDescFrameSegmentConfig          0x0800c925   Thumb Code     8  stm32f4x7_eth.o(.text)
    ETH_DMATxDescChecksumInsertionConfig     0x0800c92d   Thumb Code     8  stm32f4x7_eth.o(.text)
    ETH_DMATxDescCRCCmd                      0x0800c935   Thumb Code    22  stm32f4x7_eth.o(.text)
    ETH_DMATxDescSecondAddressChainedCmd     0x0800c94b   Thumb Code    22  stm32f4x7_eth.o(.text)
    ETH_DMATxDescShortFramePaddingCmd        0x0800c961   Thumb Code    22  stm32f4x7_eth.o(.text)
    ETH_DMATxDescBufferSizeConfig            0x0800c977   Thumb Code    14  stm32f4x7_eth.o(.text)
    ETH_GetDMARxDescFlagStatus               0x0800c985   Thumb Code    18  stm32f4x7_eth.o(.text)
    ETH_GetDMAPTPRxDescExtendedFlagStatus    0x0800c997   Thumb Code    18  stm32f4x7_eth.o(.text)
    ETH_SetDMARxDescOwnBit                   0x0800c9a9   Thumb Code    10  stm32f4x7_eth.o(.text)
    ETH_GetDMARxDescFrameLength              0x0800c9b3   Thumb Code    10  stm32f4x7_eth.o(.text)
    ETH_DMARxDescReceiveITConfig             0x0800c9bd   Thumb Code    22  stm32f4x7_eth.o(.text)
    ETH_GetDMARxDescBufferSize               0x0800c9d3   Thumb Code    20  stm32f4x7_eth.o(.text)
    ETH_GetRxPktSize                         0x0800c9e7   Thumb Code    42  stm32f4x7_eth.o(.text)
    ETH_EnhancedDescriptorCmd                0x0800ca11   Thumb Code    30  stm32f4x7_eth.o(.text)
    ETH_SoftwareReset                        0x0800ca2f   Thumb Code    14  stm32f4x7_eth.o(.text)
    ETH_GetSoftwareResetStatus               0x0800ca3d   Thumb Code    20  stm32f4x7_eth.o(.text)
    ETH_GetDMAFlagStatus                     0x0800ca51   Thumb Code    20  stm32f4x7_eth.o(.text)
    ETH_DMAClearFlag                         0x0800ca65   Thumb Code     6  stm32f4x7_eth.o(.text)
    ETH_DMAITConfig                          0x0800ca6b   Thumb Code    26  stm32f4x7_eth.o(.text)
    ETH_GetDMAITStatus                       0x0800ca85   Thumb Code    20  stm32f4x7_eth.o(.text)
    ETH_DMAClearITPendingBit                 0x0800ca99   Thumb Code     6  stm32f4x7_eth.o(.text)
    ETH_GetTransmitProcessState              0x0800ca9f   Thumb Code    10  stm32f4x7_eth.o(.text)
    ETH_GetReceiveProcessState               0x0800caa9   Thumb Code    10  stm32f4x7_eth.o(.text)
    ETH_GetFlushTransmitFIFOStatus           0x0800cab3   Thumb Code    20  stm32f4x7_eth.o(.text)
    ETH_GetDMAOverflowStatus                 0x0800cac7   Thumb Code    20  stm32f4x7_eth.o(.text)
    ETH_GetRxOverflowMissedFrameCounter      0x0800cadb   Thumb Code    10  stm32f4x7_eth.o(.text)
    ETH_GetBufferUnavailableMissedFrameCounter 0x0800cae5   Thumb Code     8  stm32f4x7_eth.o(.text)
    ETH_GetCurrentTxDescStartAddress         0x0800caed   Thumb Code     6  stm32f4x7_eth.o(.text)
    ETH_GetCurrentRxDescStartAddress         0x0800caf3   Thumb Code     6  stm32f4x7_eth.o(.text)
    ETH_GetCurrentTxBufferAddress            0x0800caf9   Thumb Code     6  stm32f4x7_eth.o(.text)
    ETH_GetCurrentRxBufferAddress            0x0800caff   Thumb Code     6  stm32f4x7_eth.o(.text)
    ETH_ResumeDMATransmission                0x0800cb05   Thumb Code     8  stm32f4x7_eth.o(.text)
    ETH_ResumeDMAReception                   0x0800cb0d   Thumb Code     8  stm32f4x7_eth.o(.text)
    ETH_SetReceiveWatchdogTimer              0x0800cb15   Thumb Code     6  stm32f4x7_eth.o(.text)
    ETH_PHYLoopBackCmd                       0x0800cb1b   Thumb Code    52  stm32f4x7_eth.o(.text)
    ETH_ResetWakeUpFrameFilterRegisterPointer 0x0800cb4f   Thumb Code    14  stm32f4x7_eth.o(.text)
    ETH_SetWakeUpFrameFilterRegister         0x0800cb5d   Thumb Code    24  stm32f4x7_eth.o(.text)
    ETH_GlobalUnicastWakeUpCmd               0x0800cb75   Thumb Code    30  stm32f4x7_eth.o(.text)
    ETH_GetPMTFlagStatus                     0x0800cb93   Thumb Code    20  stm32f4x7_eth.o(.text)
    ETH_WakeUpFrameDetectionCmd              0x0800cba7   Thumb Code    30  stm32f4x7_eth.o(.text)
    ETH_MagicPacketDetectionCmd              0x0800cbc5   Thumb Code    30  stm32f4x7_eth.o(.text)
    ETH_PowerDownCmd                         0x0800cbe3   Thumb Code    50  stm32f4x7_eth.o(.text)
    ETH_MMCCounterFullPreset                 0x0800cc15   Thumb Code    16  stm32f4x7_eth.o(.text)
    ETH_MMCCounterHalfPreset                 0x0800cc25   Thumb Code    30  stm32f4x7_eth.o(.text)
    ETH_MMCCounterFreezeCmd                  0x0800cc43   Thumb Code    34  stm32f4x7_eth.o(.text)
    ETH_MMCResetOnReadCmd                    0x0800cc65   Thumb Code    34  stm32f4x7_eth.o(.text)
    ETH_MMCCounterRolloverCmd                0x0800cc87   Thumb Code    34  stm32f4x7_eth.o(.text)
    ETH_MMCCountersReset                     0x0800cca9   Thumb Code    16  stm32f4x7_eth.o(.text)
    ETH_MMCITConfig                          0x0800ccb9   Thumb Code    78  stm32f4x7_eth.o(.text)
    ETH_GetMMCITStatus                       0x0800cd07   Thumb Code    66  stm32f4x7_eth.o(.text)
    ETH_GetMMCRegister                       0x0800cd49   Thumb Code     8  stm32f4x7_eth.o(.text)
    ADC_DeInit                               0x0800cd59   Thumb Code    22  stm32f4xx_adc.o(.text)
    ADC_Init                                 0x0800cd6f   Thumb Code    74  stm32f4xx_adc.o(.text)
    ADC_StructInit                           0x0800cdb9   Thumb Code    20  stm32f4xx_adc.o(.text)
    ADC_CommonInit                           0x0800cdcd   Thumb Code    34  stm32f4xx_adc.o(.text)
    ADC_CommonStructInit                     0x0800cdef   Thumb Code    12  stm32f4xx_adc.o(.text)
    ADC_Cmd                                  0x0800cdfb   Thumb Code    22  stm32f4xx_adc.o(.text)
    ADC_AnalogWatchdogCmd                    0x0800ce11   Thumb Code    16  stm32f4xx_adc.o(.text)
    ADC_AnalogWatchdogThresholdsConfig       0x0800ce21   Thumb Code     6  stm32f4xx_adc.o(.text)
    ADC_AnalogWatchdogSingleChannelConfig    0x0800ce27   Thumb Code    16  stm32f4xx_adc.o(.text)
    ADC_TempSensorVrefintCmd                 0x0800ce37   Thumb Code    34  stm32f4xx_adc.o(.text)
    ADC_VBATCmd                              0x0800ce59   Thumb Code    34  stm32f4xx_adc.o(.text)
    ADC_RegularChannelConfig                 0x0800ce7b   Thumb Code   184  stm32f4xx_adc.o(.text)
    ADC_SoftwareStartConv                    0x0800cf33   Thumb Code    10  stm32f4xx_adc.o(.text)
    ADC_GetSoftwareStartConvStatus           0x0800cf3d   Thumb Code    20  stm32f4xx_adc.o(.text)
    ADC_EOCOnEachRegularChannelCmd           0x0800cf51   Thumb Code    22  stm32f4xx_adc.o(.text)
    ADC_ContinuousModeCmd                    0x0800cf67   Thumb Code    22  stm32f4xx_adc.o(.text)
    ADC_DiscModeChannelCountConfig           0x0800cf7d   Thumb Code    24  stm32f4xx_adc.o(.text)
    ADC_DiscModeCmd                          0x0800cf95   Thumb Code    22  stm32f4xx_adc.o(.text)
    ADC_GetConversionValue                   0x0800cfab   Thumb Code     8  stm32f4xx_adc.o(.text)
    ADC_GetMultiModeConversionValue          0x0800cfb3   Thumb Code     8  stm32f4xx_adc.o(.text)
    ADC_DMACmd                               0x0800cfbb   Thumb Code    22  stm32f4xx_adc.o(.text)
    ADC_DMARequestAfterLastTransferCmd       0x0800cfd1   Thumb Code    22  stm32f4xx_adc.o(.text)
    ADC_MultiModeDMARequestAfterLastTransferCmd 0x0800cfe7   Thumb Code    34  stm32f4xx_adc.o(.text)
    ADC_InjectedChannelConfig                0x0800d009   Thumb Code   130  stm32f4xx_adc.o(.text)
    ADC_InjectedSequencerLengthConfig        0x0800d08b   Thumb Code    24  stm32f4xx_adc.o(.text)
    ADC_SetInjectedOffset                    0x0800d0a3   Thumb Code    20  stm32f4xx_adc.o(.text)
    ADC_ExternalTrigInjectedConvConfig       0x0800d0b7   Thumb Code    16  stm32f4xx_adc.o(.text)
    ADC_ExternalTrigInjectedConvEdgeConfig   0x0800d0c7   Thumb Code    16  stm32f4xx_adc.o(.text)
    ADC_SoftwareStartInjectedConv            0x0800d0d7   Thumb Code    10  stm32f4xx_adc.o(.text)
    ADC_GetSoftwareStartInjectedConvCmdStatus 0x0800d0e1   Thumb Code    20  stm32f4xx_adc.o(.text)
    ADC_AutoInjectedConvCmd                  0x0800d0f5   Thumb Code    22  stm32f4xx_adc.o(.text)
    ADC_InjectedDiscModeCmd                  0x0800d10b   Thumb Code    22  stm32f4xx_adc.o(.text)
    ADC_GetInjectedConversionValue           0x0800d121   Thumb Code    28  stm32f4xx_adc.o(.text)
    ADC_ITConfig                             0x0800d13d   Thumb Code    56  stm32f4xx_adc.o(.text)
    ADC_GetFlagStatus                        0x0800d175   Thumb Code    18  stm32f4xx_adc.o(.text)
    ADC_ClearFlag                            0x0800d187   Thumb Code     6  stm32f4xx_adc.o(.text)
    ADC_GetITStatus                          0x0800d18d   Thumb Code    38  stm32f4xx_adc.o(.text)
    ADC_ClearITPendingBit                    0x0800d1b3   Thumb Code    10  stm32f4xx_adc.o(.text)
    FSMC_NORSRAMDeInit                       0x0800d1bd   Thumb Code    54  stm32f4xx_fsmc.o(.text)
    FSMC_NORSRAMInit                         0x0800d1f3   Thumb Code   230  stm32f4xx_fsmc.o(.text)
    FSMC_NORSRAMStructInit                   0x0800d2d9   Thumb Code    48  stm32f4xx_fsmc.o(.text)
    FSMC_NORSRAMCmd                          0x0800d309   Thumb Code    46  stm32f4xx_fsmc.o(.text)
    FSMC_NANDDeInit                          0x0800d337   Thumb Code    62  stm32f4xx_fsmc.o(.text)
    FSMC_NANDInit                            0x0800d375   Thumb Code   132  stm32f4xx_fsmc.o(.text)
    FSMC_NANDStructInit                      0x0800d3f9   Thumb Code    54  stm32f4xx_fsmc.o(.text)
    FSMC_NANDCmd                             0x0800d42f   Thumb Code    86  stm32f4xx_fsmc.o(.text)
    FSMC_NANDECCCmd                          0x0800d485   Thumb Code    86  stm32f4xx_fsmc.o(.text)
    FSMC_GetECC                              0x0800d4db   Thumb Code    24  stm32f4xx_fsmc.o(.text)
    FSMC_PCCARDDeInit                        0x0800d4f3   Thumb Code    36  stm32f4xx_fsmc.o(.text)
    FSMC_PCCARDInit                          0x0800d517   Thumb Code   130  stm32f4xx_fsmc.o(.text)
    FSMC_PCCARDStructInit                    0x0800d599   Thumb Code    60  stm32f4xx_fsmc.o(.text)
    FSMC_PCCARDCmd                           0x0800d5d5   Thumb Code    44  stm32f4xx_fsmc.o(.text)
    FSMC_ITConfig                            0x0800d601   Thumb Code   128  stm32f4xx_fsmc.o(.text)
    FSMC_GetFlagStatus                       0x0800d681   Thumb Code    54  stm32f4xx_fsmc.o(.text)
    FSMC_ClearFlag                           0x0800d6b7   Thumb Code    74  stm32f4xx_fsmc.o(.text)
    FSMC_GetITStatus                         0x0800d701   Thumb Code    62  stm32f4xx_fsmc.o(.text)
    FSMC_ClearITPendingBit                   0x0800d73f   Thumb Code    66  stm32f4xx_fsmc.o(.text)
    DMA_DeInit                               0x0800d785   Thumb Code   324  stm32f4xx_dma.o(.text)
    DMA_Init                                 0x0800d8c9   Thumb Code    82  stm32f4xx_dma.o(.text)
    DMA_StructInit                           0x0800d91b   Thumb Code    34  stm32f4xx_dma.o(.text)
    DMA_Cmd                                  0x0800d93d   Thumb Code    22  stm32f4xx_dma.o(.text)
    DMA_PeriphIncOffsetSizeConfig            0x0800d953   Thumb Code    22  stm32f4xx_dma.o(.text)
    DMA_FlowControllerConfig                 0x0800d969   Thumb Code    22  stm32f4xx_dma.o(.text)
    DMA_SetCurrDataCounter                   0x0800d97f   Thumb Code     4  stm32f4xx_dma.o(.text)
    DMA_GetCurrDataCounter                   0x0800d983   Thumb Code     8  stm32f4xx_dma.o(.text)
    DMA_DoubleBufferModeConfig               0x0800d98b   Thumb Code    24  stm32f4xx_dma.o(.text)
    DMA_DoubleBufferModeCmd                  0x0800d9a3   Thumb Code    22  stm32f4xx_dma.o(.text)
    DMA_MemoryTargetConfig                   0x0800d9b9   Thumb Code    10  stm32f4xx_dma.o(.text)
    DMA_GetCurrentMemoryTarget               0x0800d9c3   Thumb Code    20  stm32f4xx_dma.o(.text)
    DMA_GetCmdStatus                         0x0800d9d7   Thumb Code    20  stm32f4xx_dma.o(.text)
    DMA_GetFIFOStatus                        0x0800d9eb   Thumb Code    12  stm32f4xx_dma.o(.text)
    DMA_GetFlagStatus                        0x0800d9f7   Thumb Code    56  stm32f4xx_dma.o(.text)
    DMA_ClearFlag                            0x0800da2f   Thumb Code    40  stm32f4xx_dma.o(.text)
    DMA_ITConfig                             0x0800da57   Thumb Code    58  stm32f4xx_dma.o(.text)
    DMA_GetITStatus                          0x0800da91   Thumb Code    84  stm32f4xx_dma.o(.text)
    DMA_ClearITPendingBit                    0x0800dae5   Thumb Code    40  stm32f4xx_dma.o(.text)
    DCMI_DeInit                              0x0800db2d   Thumb Code    24  stm32f4xx_dcmi.o(.text)
    DCMI_Init                                0x0800db45   Thumb Code    60  stm32f4xx_dcmi.o(.text)
    DCMI_StructInit                          0x0800db81   Thumb Code    18  stm32f4xx_dcmi.o(.text)
    DCMI_CROPConfig                          0x0800db93   Thumb Code    26  stm32f4xx_dcmi.o(.text)
    DCMI_CROPCmd                             0x0800dbad   Thumb Code    30  stm32f4xx_dcmi.o(.text)
    DCMI_SetEmbeddedSynchroCodes             0x0800dbcb   Thumb Code    26  stm32f4xx_dcmi.o(.text)
    DCMI_JPEGCmd                             0x0800dbe5   Thumb Code    30  stm32f4xx_dcmi.o(.text)
    DCMI_Cmd                                 0x0800dc03   Thumb Code    30  stm32f4xx_dcmi.o(.text)
    DCMI_CaptureCmd                          0x0800dc21   Thumb Code    30  stm32f4xx_dcmi.o(.text)
    DCMI_ReadData                            0x0800dc3f   Thumb Code     6  stm32f4xx_dcmi.o(.text)
    DCMI_ITConfig                            0x0800dc45   Thumb Code    30  stm32f4xx_dcmi.o(.text)
    DCMI_GetFlagStatus                       0x0800dc63   Thumb Code    46  stm32f4xx_dcmi.o(.text)
    DCMI_ClearFlag                           0x0800dc91   Thumb Code     6  stm32f4xx_dcmi.o(.text)
    DCMI_GetITStatus                         0x0800dc97   Thumb Code    24  stm32f4xx_dcmi.o(.text)
    DCMI_ClearITPendingBit                   0x0800dcaf   Thumb Code     6  stm32f4xx_dcmi.o(.text)
    SPI_I2S_DeInit                           0x0800dcb9   Thumb Code   152  stm32f4xx_spi.o(.text)
    SPI_Init                                 0x0800dd51   Thumb Code    60  stm32f4xx_spi.o(.text)
    I2S_Init                                 0x0800dd8d   Thumb Code   396  stm32f4xx_spi.o(.text)
    SPI_StructInit                           0x0800df19   Thumb Code    24  stm32f4xx_spi.o(.text)
    I2S_StructInit                           0x0800df31   Thumb Code    20  stm32f4xx_spi.o(.text)
    SPI_Cmd                                  0x0800df45   Thumb Code    24  stm32f4xx_spi.o(.text)
    I2S_Cmd                                  0x0800df5d   Thumb Code    24  stm32f4xx_spi.o(.text)
    SPI_DataSizeConfig                       0x0800df75   Thumb Code    18  stm32f4xx_spi.o(.text)
    SPI_BiDirectionalLineConfig              0x0800df87   Thumb Code    28  stm32f4xx_spi.o(.text)
    SPI_NSSInternalSoftwareConfig            0x0800dfa3   Thumb Code    30  stm32f4xx_spi.o(.text)
    SPI_SSOutputCmd                          0x0800dfc1   Thumb Code    24  stm32f4xx_spi.o(.text)
    SPI_TIModeCmd                            0x0800dfd9   Thumb Code    24  stm32f4xx_spi.o(.text)
    I2S_FullDuplexConfig                     0x0800dff1   Thumb Code    80  stm32f4xx_spi.o(.text)
    SPI_I2S_ReceiveData                      0x0800e041   Thumb Code     6  stm32f4xx_spi.o(.text)
    SPI_I2S_SendData                         0x0800e047   Thumb Code     4  stm32f4xx_spi.o(.text)
    SPI_CalculateCRC                         0x0800e04b   Thumb Code    24  stm32f4xx_spi.o(.text)
    SPI_TransmitCRC                          0x0800e063   Thumb Code    10  stm32f4xx_spi.o(.text)
    SPI_GetCRC                               0x0800e06d   Thumb Code    16  stm32f4xx_spi.o(.text)
    SPI_GetCRCPolynomial                     0x0800e07d   Thumb Code     6  stm32f4xx_spi.o(.text)
    SPI_I2S_DMACmd                           0x0800e083   Thumb Code    18  stm32f4xx_spi.o(.text)
    SPI_I2S_ITConfig                         0x0800e095   Thumb Code    68  stm32f4xx_spi.o(.text)
    SPI_I2S_GetFlagStatus                    0x0800e0d9   Thumb Code    18  stm32f4xx_spi.o(.text)
    SPI_I2S_ClearFlag                        0x0800e0eb   Thumb Code     6  stm32f4xx_spi.o(.text)
    SPI_I2S_GetITStatus                      0x0800e0f1   Thumb Code    52  stm32f4xx_spi.o(.text)
    SPI_I2S_ClearITPendingBit                0x0800e125   Thumb Code    20  stm32f4xx_spi.o(.text)
    SDIO_DeInit                              0x0800e139   Thumb Code    22  stm32f4xx_sdio.o(.text)
    SDIO_Init                                0x0800e14f   Thumb Code    42  stm32f4xx_sdio.o(.text)
    SDIO_StructInit                          0x0800e179   Thumb Code    16  stm32f4xx_sdio.o(.text)
    SDIO_ClockCmd                            0x0800e189   Thumb Code     6  stm32f4xx_sdio.o(.text)
    SDIO_SetPowerState                       0x0800e18f   Thumb Code     8  stm32f4xx_sdio.o(.text)
    SDIO_GetPowerState                       0x0800e197   Thumb Code    12  stm32f4xx_sdio.o(.text)
    SDIO_SendCommand                         0x0800e1a3   Thumb Code    42  stm32f4xx_sdio.o(.text)
    SDIO_CmdStructInit                       0x0800e1cd   Thumb Code    14  stm32f4xx_sdio.o(.text)
    SDIO_GetCommandResponse                  0x0800e1db   Thumb Code    10  stm32f4xx_sdio.o(.text)
    SDIO_GetResponse                         0x0800e1e5   Thumb Code    22  stm32f4xx_sdio.o(.text)
    SDIO_DataConfig                          0x0800e1fb   Thumb Code    48  stm32f4xx_sdio.o(.text)
    SDIO_DataStructInit                      0x0800e22b   Thumb Code    20  stm32f4xx_sdio.o(.text)
    SDIO_GetDataCounter                      0x0800e23f   Thumb Code     8  stm32f4xx_sdio.o(.text)
    SDIO_ReadData                            0x0800e247   Thumb Code     8  stm32f4xx_sdio.o(.text)
    SDIO_WriteData                           0x0800e24f   Thumb Code     8  stm32f4xx_sdio.o(.text)
    SDIO_GetFIFOCount                        0x0800e257   Thumb Code     8  stm32f4xx_sdio.o(.text)
    SDIO_StartSDIOReadWait                   0x0800e25f   Thumb Code     6  stm32f4xx_sdio.o(.text)
    SDIO_StopSDIOReadWait                    0x0800e265   Thumb Code     8  stm32f4xx_sdio.o(.text)
    SDIO_SetSDIOReadWaitMode                 0x0800e26d   Thumb Code     8  stm32f4xx_sdio.o(.text)
    SDIO_SetSDIOOperation                    0x0800e275   Thumb Code     8  stm32f4xx_sdio.o(.text)
    SDIO_SendSDIOSuspendCmd                  0x0800e27d   Thumb Code     6  stm32f4xx_sdio.o(.text)
    SDIO_CommandCompletionCmd                0x0800e283   Thumb Code     8  stm32f4xx_sdio.o(.text)
    SDIO_CEATAITCmd                          0x0800e28b   Thumb Code    12  stm32f4xx_sdio.o(.text)
    SDIO_SendCEATACmd                        0x0800e297   Thumb Code     8  stm32f4xx_sdio.o(.text)
    SDIO_DMACmd                              0x0800e29f   Thumb Code     8  stm32f4xx_sdio.o(.text)
    SDIO_ITConfig                            0x0800e2a7   Thumb Code    34  stm32f4xx_sdio.o(.text)
    SDIO_GetFlagStatus                       0x0800e2c9   Thumb Code    22  stm32f4xx_sdio.o(.text)
    SDIO_ClearFlag                           0x0800e2df   Thumb Code     8  stm32f4xx_sdio.o(.text)
    SDIO_GetITStatus                         0x0800e2e7   Thumb Code    22  stm32f4xx_sdio.o(.text)
    SDIO_ClearITPendingBit                   0x0800e2fd   Thumb Code     8  stm32f4xx_sdio.o(.text)
    delay_schedlock                          0x0800e315   Thumb Code     8  delay.o(.text)
    delay_schedunlock                        0x0800e31d   Thumb Code     8  delay.o(.text)
    delay_ostimedly                          0x0800e325   Thumb Code    12  delay.o(.text)
    SysTick_Handler                          0x0800e331   Thumb Code    24  delay.o(.text)
    delay_init                               0x0800e349   Thumb Code    76  delay.o(.text)
    delay_us                                 0x0800e395   Thumb Code    86  delay.o(.text)
    delay_ms                                 0x0800e3eb   Thumb Code    66  delay.o(.text)
    _sys_exit                                0x0800e43d   Thumb Code     6  usart.o(.text)
    fputc                                    0x0800e443   Thumb Code    22  usart.o(.text)
    uart_init                                0x0800e459   Thumb Code   172  usart.o(.text)
    USART1_IRQHandler                        0x0800e505   Thumb Code   130  usart.o(.text)
    usmart_sys_cmd_exe                       0x0800e599   Thumb Code  1554  usmart.o(.text)
    usmart_reset_runtime                     0x0800ebab   Thumb Code    38  usmart.o(.text)
    usmart_get_runtime                       0x0800ebd1   Thumb Code    56  usmart.o(.text)
    TIM4_IRQHandler                          0x0800ec09   Thumb Code    50  usmart.o(.text)
    Timer4_Init                              0x0800ec3b   Thumb Code    90  usmart.o(.text)
    usmart_init                              0x0800ec95   Thumb Code    36  usmart.o(.text)
    usmart_cmd_rec                           0x0800ecb9   Thumb Code   170  usmart.o(.text)
    usmart_exe                               0x0800ed63   Thumb Code   872  usmart.o(.text)
    usmart_scan                              0x0800f0cb   Thumb Code   120  usmart.o(.text)
    read_addr                                0x0800f143   Thumb Code     6  usmart.o(.text)
    write_addr                               0x0800f149   Thumb Code     4  usmart.o(.text)
    usmart_strcmp                            0x0800f1d5   Thumb Code    34  usmart_str.o(.text)
    usmart_strcopy                           0x0800f1f7   Thumb Code    22  usmart_str.o(.text)
    usmart_strlen                            0x0800f20d   Thumb Code    24  usmart_str.o(.text)
    usmart_pow                               0x0800f225   Thumb Code    22  usmart_str.o(.text)
    usmart_str2num                           0x0800f23b   Thumb Code   202  usmart_str.o(.text)
    usmart_get_cmdname                       0x0800f305   Thumb Code    54  usmart_str.o(.text)
    usmart_search_nextc                      0x0800f33b   Thumb Code    22  usmart_str.o(.text)
    usmart_get_fname                         0x0800f351   Thumb Code   440  usmart_str.o(.text)
    usmart_get_aparm                         0x0800f509   Thumb Code   200  usmart_str.o(.text)
    usmart_get_parmpos                       0x0800f5d1   Thumb Code    26  usmart_str.o(.text)
    usmart_get_fparam                        0x0800f5eb   Thumb Code   262  usmart_str.o(.text)
    lwip_pkt_handle                          0x0800f6fd   Thumb Code    10  lwip_comm.o(.text)
    lwip_comm_mem_free                       0x0800f707   Thumb Code    44  lwip_comm.o(.text)
    lwip_comm_mem_malloc                     0x0800f733   Thumb Code   100  lwip_comm.o(.text)
    lwip_comm_default_ip_set                 0x0800f797   Thumb Code    94  lwip_comm.o(.text)
    lwip_comm_init                           0x0800f7f5   Thumb Code   118  lwip_comm.o(.text)
    lwip_comm_dhcp_delete                    0x0800f86b   Thumb Code    16  lwip_comm.o(.text)
    lwip_dhcp_task                           0x0800f87b   Thumb Code  1302  lwip_comm.o(.text)
    lwip_comm_dhcp_creat                     0x0800fd91   Thumb Code    36  lwip_comm.o(.text)
    lwip_periodic_handle                     0x0800fdb5   Thumb Code   140  lwip_comm.o(.text)
    tcp_server_recv                          0x0800fe5d   Thumb Code   258  tcp_server.o(.text)
    tcp_server_task                          0x0800ff5f   Thumb Code   292  tcp_server.o(.text)
    tcp_server_init                          0x08010083   Thumb Code    92  tcp_server.o(.text)
    tcp_send_task                            0x0801027d   Thumb Code   266  tcp_client.o(.text)
    tcp_handle_task                          0x08010387   Thumb Code  3896  tcp_client.o(.text)
    tcp_client_recv                          0x080112bf   Thumb Code   264  tcp_client.o(.text)
    tcp_client_connect                       0x080113c7   Thumb Code   384  tcp_client.o(.text)
    tcp_client_init                          0x08011547   Thumb Code   506  tcp_client.o(.text)
    etharp_tmr                               0x080117c9   Thumb Code   144  etharp.o(.text)
    etharp_cleanup_netif                     0x08011ca7   Thumb Code    52  etharp.o(.text)
    etharp_find_addr                         0x08011cdb   Thumb Code   110  etharp.o(.text)
    etharp_request                           0x08011fbb   Thumb Code    40  etharp.o(.text)
    etharp_query                             0x08012071   Thumb Code   646  etharp.o(.text)
    etharp_output                            0x080122f7   Thumb Code   392  etharp.o(.text)
    ethernet_input                           0x0801247f   Thumb Code   204  etharp.o(.text)
    ethernetif_input                         0x08012717   Thumb Code    48  ethernetif.o(.text)
    ethernetif_init                          0x08012747   Thumb Code    56  ethernetif.o(.text)
    icmp_input                               0x08012805   Thumb Code   492  icmp.o(.text)
    icmp_dest_unreach                        0x08012a91   Thumb Code    18  icmp.o(.text)
    icmp_time_exceeded                       0x08012aa3   Thumb Code    18  icmp.o(.text)
    inet_chksum_pseudo                       0x08012c87   Thumb Code   170  inet_chksum.o(.text)
    inet_chksum_pseudo_partial               0x08012d31   Thumb Code   218  inet_chksum.o(.text)
    inet_chksum                              0x08012e0b   Thumb Code    20  inet_chksum.o(.text)
    inet_chksum_pbuf                         0x08012e1f   Thumb Code    86  inet_chksum.o(.text)
    ip_route                                 0x08012edd   Thumb Code    80  ip.o(.text)
    ip_input                                 0x08012f2d   Thumb Code   484  ip.o(.text)
    ip_output_if                             0x08013111   Thumb Code   252  ip.o(.text)
    ip_output                                0x0801320d   Thumb Code    84  ip.o(.text)
    ip4_addr_isbroadcast                     0x0801330d   Thumb Code    78  ip_addr.o(.text)
    ip4_addr_netmask_valid                   0x0801335b   Thumb Code    56  ip_addr.o(.text)
    ipaddr_aton                              0x08013393   Thumb Code   364  ip_addr.o(.text)
    ipaddr_addr                              0x080134ff   Thumb Code    24  ip_addr.o(.text)
    ipaddr_ntoa_r                            0x08013517   Thumb Code   168  ip_addr.o(.text)
    ipaddr_ntoa                              0x080135bf   Thumb Code    16  ip_addr.o(.text)
    ip_reass_tmr                             0x08013789   Thumb Code    56  ip_frag.o(.text)
    ip_reass                                 0x08013bc5   Thumb Code   410  ip_frag.o(.text)
    ip_frag                                  0x08013de5   Thumb Code   630  ip_frag.o(.text)
    lwip_htons                               0x08014061   Thumb Code    12  def.o(.text)
    lwip_ntohs                               0x0801406d   Thumb Code    12  def.o(.text)
    lwip_htonl                               0x08014079   Thumb Code    26  def.o(.text)
    lwip_ntohl                               0x08014093   Thumb Code    12  def.o(.text)
    dhcp_renew                               0x0801497d   Thumb Code   150  dhcp.o(.text)
    dhcp_coarse_tmr                          0x08014b49   Thumb Code    74  dhcp.o(.text)
    dhcp_release                             0x08014c47   Thumb Code   178  dhcp.o(.text)
    dhcp_fine_tmr                            0x08014eed   Thumb Code   132  dhcp.o(.text)
    dhcp_set_struct                          0x08014fe1   Thumb Code   106  dhcp.o(.text)
    dhcp_cleanup                             0x0801504b   Thumb Code    48  dhcp.o(.text)
    dhcp_stop                                0x0801507b   Thumb Code   112  dhcp.o(.text)
    dhcp_start                               0x08015749   Thumb Code   438  dhcp.o(.text)
    dhcp_inform                              0x080158ff   Thumb Code   210  dhcp.o(.text)
    dhcp_network_changed                     0x080159d1   Thumb Code    80  dhcp.o(.text)
    dhcp_arp_reply                           0x08015aaf   Thumb Code    80  dhcp.o(.text)
    lwip_init                                0x08015b0d   Thumb Code    36  init.o(.text)
    memp_get_memorysize                      0x08015b31   Thumb Code     8  memp.o(.text)
    memp_init                                0x08015b39   Thumb Code    86  memp.o(.text)
    memp_malloc                              0x08015b8f   Thumb Code   104  memp.o(.text)
    memp_free                                0x08015bf7   Thumb Code    74  memp.o(.text)
    netif_init                               0x08015d05   Thumb Code     2  netif.o(.text)
    netif_set_gw                             0x08015d07   Thumb Code    16  netif.o(.text)
    netif_set_netmask                        0x08015d17   Thumb Code    16  netif.o(.text)
    netif_set_ipaddr                         0x08015d27   Thumb Code   124  netif.o(.text)
    netif_set_addr                           0x08015da3   Thumb Code    40  netif.o(.text)
    netif_add                                0x08015dcb   Thumb Code   148  netif.o(.text)
    netif_set_default                        0x08015e5f   Thumb Code    10  netif.o(.text)
    netif_set_down                           0x08015e69   Thumb Code    42  netif.o(.text)
    netif_remove                             0x08015e93   Thumb Code    94  netif.o(.text)
    netif_find                               0x08015ef1   Thumb Code    72  netif.o(.text)
    netif_set_up                             0x08015f39   Thumb Code    54  netif.o(.text)
    netif_set_link_up                        0x08015f6f   Thumb Code    66  netif.o(.text)
    netif_set_link_down                      0x08015fb1   Thumb Code    24  netif.o(.text)
    pbuf_free                                0x08016045   Thumb Code   272  pbuf.o(.text)
    pbuf_alloc                               0x08016155   Thumb Code   652  pbuf.o(.text)
    pbuf_alloced_custom                      0x080163e1   Thumb Code   656  pbuf.o(.text)
    pbuf_realloc                             0x08016671   Thumb Code   268  pbuf.o(.text)
    pbuf_header                              0x0801677d   Thumb Code   214  pbuf.o(.text)
    pbuf_clen                                0x08016853   Thumb Code    18  pbuf.o(.text)
    pbuf_ref                                 0x08016865   Thumb Code    26  pbuf.o(.text)
    pbuf_cat                                 0x0801687f   Thumb Code   138  pbuf.o(.text)
    pbuf_chain                               0x08016909   Thumb Code    26  pbuf.o(.text)
    pbuf_dechain                             0x08016923   Thumb Code   132  pbuf.o(.text)
    pbuf_copy                                0x080169a7   Thumb Code   790  pbuf.o(.text)
    pbuf_copy_partial                        0x08016cbd   Thumb Code   190  pbuf.o(.text)
    pbuf_take                                0x08016d7b   Thumb Code   210  pbuf.o(.text)
    pbuf_coalesce                            0x08016e4d   Thumb Code    84  pbuf.o(.text)
    pbuf_get_at                              0x08016ea1   Thumb Code    46  pbuf.o(.text)
    pbuf_memcmp                              0x08016ecf   Thumb Code    96  pbuf.o(.text)
    pbuf_memfind                             0x08016f2f   Thumb Code    76  pbuf.o(.text)
    pbuf_strstr                              0x08016f7b   Thumb Code    60  pbuf.o(.text)
    raw_input                                0x080170e5   Thumb Code   102  raw.o(.text)
    raw_bind                                 0x0801714b   Thumb Code    16  raw.o(.text)
    raw_connect                              0x0801715b   Thumb Code    16  raw.o(.text)
    raw_recv                                 0x0801716b   Thumb Code     6  raw.o(.text)
    raw_sendto                               0x08017171   Thumb Code   190  raw.o(.text)
    raw_send                                 0x0801722f   Thumb Code    18  raw.o(.text)
    raw_remove                               0x08017241   Thumb Code    60  raw.o(.text)
    raw_new                                  0x0801727d   Thumb Code    46  raw.o(.text)
    tcp_init                                 0x08017331   Thumb Code     2  tcp.o(.text)
    tcp_seg_free                             0x08017333   Thumb Code    26  tcp.o(.text)
    tcp_segs_free                            0x0801734d   Thumb Code    24  tcp.o(.text)
    tcp_pcb_purge                            0x08017365   Thumb Code    88  tcp.o(.text)
    tcp_slowtmr                              0x080173bd   Thumb Code  1436  tcp.o(.text)
    tcp_pcb_remove                           0x08017959   Thumb Code   192  tcp.o(.text)
    tcp_close                                0x08017be5   Thumb Code    28  tcp.o(.text)
    tcp_update_rcv_ann_wnd                   0x08017c01   Thumb Code   106  tcp.o(.text)
    tcp_recved                               0x08017c6b   Thumb Code   392  tcp.o(.text)
    tcp_recv_null                            0x08017df3   Thumb Code    46  tcp.o(.text)
    tcp_process_refused_data                 0x08017e21   Thumb Code   148  tcp.o(.text)
    tcp_fasttmr                              0x08017eb5   Thumb Code   114  tcp.o(.text)
    tcp_tmr                                  0x08017f27   Thumb Code    30  tcp.o(.text)
    tcp_shutdown                             0x08017f45   Thumb Code    98  tcp.o(.text)
    tcp_abandon                              0x08017fa7   Thumb Code   168  tcp.o(.text)
    tcp_abort                                0x0801804f   Thumb Code    14  tcp.o(.text)
    tcp_bind                                 0x080180bd   Thumb Code   170  tcp.o(.text)
    tcp_listen_with_backlog                  0x0801816f   Thumb Code   420  tcp.o(.text)
    tcp_eff_send_mss                         0x08018313   Thumb Code    46  tcp.o(.text)
    tcp_next_iss                             0x08018341   Thumb Code    20  tcp.o(.text)
    tcp_connect                              0x08018355   Thumb Code   352  tcp.o(.text)
    tcp_setprio                              0x080184b5   Thumb Code     4  tcp.o(.text)
    tcp_alloc                                0x0801853f   Thumb Code   182  tcp.o(.text)
    tcp_new                                  0x080185f5   Thumb Code    10  tcp.o(.text)
    tcp_arg                                  0x080185ff   Thumb Code     4  tcp.o(.text)
    tcp_recv                                 0x08018603   Thumb Code    42  tcp.o(.text)
    tcp_sent                                 0x0801862d   Thumb Code    42  tcp.o(.text)
    tcp_err                                  0x08018657   Thumb Code   258  tcp.o(.text)
    tcp_accept                               0x08018759   Thumb Code     4  tcp.o(.text)
    tcp_poll                                 0x0801875d   Thumb Code    50  tcp.o(.text)
    tcp_debug_state_str                      0x0801878f   Thumb Code    10  tcp.o(.text)
    tcp_input                                0x08019987   Thumb Code  1674  tcp_in.o(.text)
    tcp_enqueue_flags                        0x0801a181   Thumb Code   418  tcp_out.o(.text)
    tcp_send_fin                             0x0801a323   Thumb Code    74  tcp_out.o(.text)
    tcp_write                                0x0801a607   Thumb Code  1744  tcp_out.o(.text)
    tcp_send_empty_ack                       0x0801acd7   Thumb Code    86  tcp_out.o(.text)
    tcp_output                               0x0801adff   Thumb Code   710  tcp_out.o(.text)
    tcp_rst                                  0x0801b0c5   Thumb Code   162  tcp_out.o(.text)
    tcp_rexmit_rto                           0x0801b167   Thumb Code    58  tcp_out.o(.text)
    tcp_rexmit                               0x0801b1a1   Thumb Code    90  tcp_out.o(.text)
    tcp_rexmit_fast                          0x0801b1fb   Thumb Code   120  tcp_out.o(.text)
    tcp_keepalive                            0x0801b273   Thumb Code    84  tcp_out.o(.text)
    tcp_zero_window_probe                    0x0801b2c7   Thumb Code   180  tcp_out.o(.text)
    sys_timeout                              0x0801b37d   Thumb Code   174  timers.o(.text)
    tcp_timer_needed                         0x0801b453   Thumb Code    38  timers.o(.text)
    sys_timeouts_init                        0x0801b4e1   Thumb Code    52  timers.o(.text)
    sys_untimeout                            0x0801b515   Thumb Code    90  timers.o(.text)
    sys_timeouts_mbox_fetch                  0x0801b56f   Thumb Code   132  timers.o(.text)
    udp_init                                 0x0801b6ad   Thumb Code     2  udp.o(.text)
    udp_input                                0x0801b6ff   Thumb Code   512  udp.o(.text)
    udp_bind                                 0x0801b8ff   Thumb Code   170  udp.o(.text)
    udp_sendto_if                            0x0801b9a9   Thumb Code   460  udp.o(.text)
    udp_sendto                               0x0801bb75   Thumb Code    54  udp.o(.text)
    udp_send                                 0x0801bbab   Thumb Code    20  udp.o(.text)
    udp_connect                              0x0801bbbf   Thumb Code    98  udp.o(.text)
    udp_disconnect                           0x0801bc21   Thumb Code    16  udp.o(.text)
    udp_recv                                 0x0801bc31   Thumb Code     6  udp.o(.text)
    udp_remove                               0x0801bc37   Thumb Code    60  udp.o(.text)
    udp_new                                  0x0801bc73   Thumb Code    28  udp.o(.text)
    mem_init                                 0x0801bd6f   Thumb Code   114  mem.o(.text)
    mem_free                                 0x0801bde1   Thumb Code   182  mem.o(.text)
    mem_trim                                 0x0801be97   Thumb Code   338  mem.o(.text)
    mem_malloc                               0x0801bfe9   Thumb Code   796  mem.o(.text)
    mem_calloc                               0x0801c305   Thumb Code    34  mem.o(.text)
    sys_mbox_new                             0x0801c3d9   Thumb Code   108  sys_arch.o(.text)
    sys_mbox_free                            0x0801c445   Thumb Code    56  sys_arch.o(.text)
    sys_mbox_post                            0x0801c47d   Thumb Code    28  sys_arch.o(.text)
    sys_mbox_trypost                         0x0801c499   Thumb Code    32  sys_arch.o(.text)
    sys_arch_mbox_fetch                      0x0801c4b9   Thumb Code   154  sys_arch.o(.text)
    sys_arch_mbox_tryfetch                   0x0801c553   Thumb Code    18  sys_arch.o(.text)
    sys_mbox_valid                           0x0801c565   Thumb Code    56  sys_arch.o(.text)
    sys_mbox_set_invalid                     0x0801c59d   Thumb Code     6  sys_arch.o(.text)
    sys_sem_new                              0x0801c5a3   Thumb Code    62  sys_arch.o(.text)
    sys_arch_sem_wait                        0x0801c5e1   Thumb Code    96  sys_arch.o(.text)
    sys_sem_signal                           0x0801c641   Thumb Code    12  sys_arch.o(.text)
    sys_sem_free                             0x0801c64d   Thumb Code    52  sys_arch.o(.text)
    sys_sem_valid                            0x0801c681   Thumb Code    22  sys_arch.o(.text)
    sys_sem_set_invalid                      0x0801c697   Thumb Code     6  sys_arch.o(.text)
    sys_init                                 0x0801c69d   Thumb Code     2  sys_arch.o(.text)
    sys_thread_new                           0x0801c69f   Thumb Code    66  sys_arch.o(.text)
    sys_msleep                               0x0801c6e1   Thumb Code    12  sys_arch.o(.text)
    sys_now                                  0x0801c6ed   Thumb Code    26  sys_arch.o(.text)
    netconn_new_with_proto_and_callback      0x0801c7ad   Thumb Code   194  api_lib.o(.text)
    netconn_delete                           0x0801c86f   Thumb Code    36  api_lib.o(.text)
    netconn_getaddr                          0x0801c893   Thumb Code   160  api_lib.o(.text)
    netconn_bind                             0x0801c933   Thumb Code    98  api_lib.o(.text)
    netconn_connect                          0x0801c995   Thumb Code    98  api_lib.o(.text)
    netconn_disconnect                       0x0801c9f7   Thumb Code    84  api_lib.o(.text)
    netconn_listen_with_backlog              0x0801ca4b   Thumb Code    86  api_lib.o(.text)
    netconn_accept                           0x0801caa1   Thumb Code   764  api_lib.o(.text)
    netconn_recv_tcp_pbuf                    0x0801cee9   Thumb Code    56  api_lib.o(.text)
    netconn_recv                             0x0801cf21   Thumb Code   270  api_lib.o(.text)
    netconn_recved                           0x0801d02f   Thumb Code    44  api_lib.o(.text)
    netconn_send                             0x0801d05b   Thumb Code    98  api_lib.o(.text)
    netconn_sendto                           0x0801d0bd   Thumb Code    44  api_lib.o(.text)
    netconn_write_partly                     0x0801d0e9   Thumb Code   438  api_lib.o(.text)
    netconn_close                            0x0801d2ff   Thumb Code    14  api_lib.o(.text)
    netconn_shutdown                         0x0801d30d   Thumb Code    36  api_lib.o(.text)
    netconn_free                             0x0801dd15   Thumb Code   328  api_msg.o(.text)
    netconn_alloc                            0x0801de5d   Thumb Code   170  api_msg.o(.text)
    do_newconn                               0x0801e069   Thumb Code    32  api_msg.o(.text)
    do_delconn                               0x0801e155   Thumb Code   636  api_msg.o(.text)
    do_bind                                  0x0801e3d1   Thumb Code   116  api_msg.o(.text)
    do_connect                               0x0801e511   Thumb Code   220  api_msg.o(.text)
    do_disconnect                            0x0801e5ed   Thumb Code    46  api_msg.o(.text)
    do_listen                                0x0801e61b   Thumb Code   386  api_msg.o(.text)
    do_send                                  0x0801e79d   Thumb Code   166  api_msg.o(.text)
    do_recv                                  0x0801e843   Thumb Code    72  api_msg.o(.text)
    do_write                                 0x0801e88b   Thumb Code   166  api_msg.o(.text)
    do_getaddr                               0x0801e931   Thumb Code   198  api_msg.o(.text)
    do_close                                 0x0801e9f7   Thumb Code   184  api_msg.o(.text)
    netbuf_new                               0x0801eae1   Thumb Code    30  netbuf.o(.text)
    netbuf_delete                            0x0801eaff   Thumb Code    32  netbuf.o(.text)
    netbuf_alloc                             0x0801eb1f   Thumb Code   102  netbuf.o(.text)
    netbuf_free                              0x0801eb85   Thumb Code    48  netbuf.o(.text)
    netbuf_ref                               0x0801ebb5   Thumb Code    92  netbuf.o(.text)
    netbuf_chain                             0x0801ec11   Thumb Code    78  netbuf.o(.text)
    netbuf_data                              0x0801ec5f   Thumb Code   122  netbuf.o(.text)
    netbuf_next                              0x0801ecd9   Thumb Code    64  netbuf.o(.text)
    netbuf_first                             0x0801ed19   Thumb Code    36  netbuf.o(.text)
    lwip_socket_init                         0x0801ee91   Thumb Code     2  sockets.o(.text)
    lwip_accept                              0x0801f13d   Thumb Code   660  sockets.o(.text)
    lwip_bind                                0x0801f3d1   Thumb Code   186  sockets.o(.text)
    lwip_close                               0x0801f48b   Thumb Code    94  sockets.o(.text)
    lwip_connect                             0x0801f4e9   Thumb Code   206  sockets.o(.text)
    lwip_listen                              0x0801f5b7   Thumb Code   136  sockets.o(.text)
    lwip_recvfrom                            0x0801f63f   Thumb Code   814  sockets.o(.text)
    lwip_read                                0x0801f96d   Thumb Code    28  sockets.o(.text)
    lwip_recv                                0x0801f989   Thumb Code    34  sockets.o(.text)
    lwip_sendto                              0x0801f9ab   Thumb Code   278  sockets.o(.text)
    lwip_send                                0x0801fac1   Thumb Code   156  sockets.o(.text)
    lwip_socket                              0x0801fb5d   Thumb Code   290  sockets.o(.text)
    lwip_write                               0x0801fc7f   Thumb Code    22  sockets.o(.text)
    lwip_select                              0x0801fe11   Thumb Code   868  sockets.o(.text)
    lwip_shutdown                            0x08020175   Thumb Code   298  sockets.o(.text)
    lwip_getpeername                         0x08020321   Thumb Code    22  sockets.o(.text)
    lwip_getsockname                         0x08020337   Thumb Code    22  sockets.o(.text)
    lwip_getsockopt                          0x0802053d   Thumb Code   408  sockets.o(.text)
    lwip_setsockopt                          0x0802087f   Thumb Code   312  sockets.o(.text)
    lwip_ioctl                               0x080209b7   Thumb Code   108  sockets.o(.text)
    lwip_fcntl                               0x08020a23   Thumb Code   116  sockets.o(.text)
    tcpip_input                              0x08020b8b   Thumb Code    72  tcpip.o(.text)
    tcpip_callback_with_block                0x08020bd3   Thumb Code    90  tcpip.o(.text)
    tcpip_timeout                            0x08020c2d   Thumb Code    64  tcpip.o(.text)
    tcpip_untimeout                          0x08020c6d   Thumb Code    56  tcpip.o(.text)
    tcpip_apimsg                             0x08020ca5   Thumb Code    60  tcpip.o(.text)
    tcpip_callbackmsg_new                    0x08020ce1   Thumb Code    32  tcpip.o(.text)
    tcpip_callbackmsg_delete                 0x08020d01   Thumb Code    14  tcpip.o(.text)
    tcpip_trycallback                        0x08020d0f   Thumb Code    28  tcpip.o(.text)
    tcpip_init                               0x08020d2b   Thumb Code    72  tcpip.o(.text)
    pbuf_free_callback                       0x08020d81   Thumb Code    16  tcpip.o(.text)
    mem_free_callback                        0x08020d91   Thumb Code    16  tcpip.o(.text)
    OS_StrLen                                0x08020e5d   Thumb Code    20  os_core.o(.text)
    OSEventNameGet                           0x08020e71   Thumb Code    98  os_core.o(.text)
    OSEventNameSet                           0x08020ed3   Thumb Code    84  os_core.o(.text)
    OS_TaskStatStkChk                        0x08020f27   Thumb Code    54  os_core.o(.text)
    OS_TaskStat                              0x08020f5d   Thumb Code   116  os_core.o(.text)
    OS_TaskIdle                              0x08021005   Thumb Code    34  os_core.o(.text)
    OS_MemClr                                0x0802105b   Thumb Code    18  os_core.o(.text)
    OSInit                                   0x08021183   Thumb Code    52  os_core.o(.text)
    OSIntEnter                               0x080211b7   Thumb Code    28  os_core.o(.text)
    OSIntExit                                0x080211ed   Thumb Code   260  os_core.o(.text)
    OSSchedLock                              0x080212f1   Thumb Code    50  os_core.o(.text)
    OS_Sched                                 0x08021323   Thumb Code    88  os_core.o(.text)
    OSSchedUnlock                            0x0802137b   Thumb Code    82  os_core.o(.text)
    OSStart                                  0x080213cd   Thumb Code    48  os_core.o(.text)
    OSStatInit                               0x080213fd   Thumb Code    62  os_core.o(.text)
    OSTimeTick                               0x0802143b   Thumb Code   210  os_core.o(.text)
    OSVersion                                0x0802150d   Thumb Code     6  os_core.o(.text)
    OS_Dummy                                 0x08021513   Thumb Code     2  os_core.o(.text)
    OS_EventTaskRemove                       0x08021515   Thumb Code    42  os_core.o(.text)
    OS_EventTaskRdy                          0x0802153f   Thumb Code   114  os_core.o(.text)
    OS_EventTaskWait                         0x080215b1   Thumb Code   112  os_core.o(.text)
    OS_EventWaitListInit                     0x08021621   Thumb Code    28  os_core.o(.text)
    OS_MemCopy                               0x0802163d   Thumb Code    20  os_core.o(.text)
    OS_TCBInit                               0x08021651   Thumb Code   360  os_core.o(.text)
    OSFlagAccept                             0x080217cd   Thumb Code   252  os_flag.o(.text)
    OSFlagCreate                             0x080218c9   Thumb Code    86  os_flag.o(.text)
    OS_FlagUnlink                            0x0802191f   Thumb Code    36  os_flag.o(.text)
    OSFlagDel                                0x08021995   Thumb Code   214  os_flag.o(.text)
    OSFlagNameGet                            0x08021a6b   Thumb Code    80  os_flag.o(.text)
    OSFlagNameSet                            0x08021abb   Thumb Code    66  os_flag.o(.text)
    OSFlagPend                               0x08021b95   Thumb Code   614  os_flag.o(.text)
    OSFlagPendGetFlagsRdy                    0x08021dfb   Thumb Code    26  os_flag.o(.text)
    OSFlagPost                               0x08021e15   Thumb Code   312  os_flag.o(.text)
    OSFlagQuery                              0x08021f4d   Thumb Code    48  os_flag.o(.text)
    OS_FlagInit                              0x08021f7d   Thumb Code    78  os_flag.o(.text)
    OSMemCreate                              0x08021fd9   Thumb Code   118  os_mem.o(.text)
    OSMemGet                                 0x0802204f   Thumb Code    62  os_mem.o(.text)
    OSMemNameGet                             0x0802208d   Thumb Code    60  os_mem.o(.text)
    OSMemNameSet                             0x080220c9   Thumb Code    48  os_mem.o(.text)
    OSMemPut                                 0x080220f9   Thumb Code    54  os_mem.o(.text)
    OSMemQuery                               0x0802212f   Thumb Code    52  os_mem.o(.text)
    OS_MemInit                               0x08022163   Thumb Code    74  os_mem.o(.text)
    OSQAccept                                0x080221bd   Thumb Code    88  os_q.o(.text)
    OSQCreate                                0x08022215   Thumb Code   144  os_q.o(.text)
    OSQDel                                   0x080222a5   Thumb Code   244  os_q.o(.text)
    OSQFlush                                 0x08022399   Thumb Code    36  os_q.o(.text)
    OSQPend                                  0x080223bd   Thumb Code   272  os_q.o(.text)
    OSQPendAbort                             0x080224cd   Thumb Code   128  os_q.o(.text)
    OSQPost                                  0x0802254d   Thumb Code   114  os_q.o(.text)
    OSQPostFront                             0x080225bf   Thumb Code   140  os_q.o(.text)
    OSQPostOpt                               0x0802264b   Thumb Code   182  os_q.o(.text)
    OSQQuery                                 0x08022701   Thumb Code    98  os_q.o(.text)
    OS_QInit                                 0x08022763   Thumb Code    74  os_q.o(.text)
    OSSemAccept                              0x080227b5   Thumb Code    42  os_sem.o(.text)
    OSSemCreate                              0x080227df   Thumb Code    72  os_sem.o(.text)
    OSSemDel                                 0x08022827   Thumb Code   230  os_sem.o(.text)
    OSSemPend                                0x0802290d   Thumb Code   222  os_sem.o(.text)
    OSSemPendAbort                           0x080229eb   Thumb Code   128  os_sem.o(.text)
    OSSemPost                                0x08022a6b   Thumb Code    88  os_sem.o(.text)
    OSSemQuery                               0x08022ac3   Thumb Code    76  os_sem.o(.text)
    OSSemSet                                 0x08022b0f   Thumb Code    66  os_sem.o(.text)
    OSTaskChangePrio                         0x08022b91   Thumb Code   308  os_task.o(.text)
    OSTaskCreate                             0x08022cc5   Thumb Code   148  os_task.o(.text)
    OS_TaskStkClr                            0x08022d59   Thumb Code    26  os_task.o(.text)
    OSTaskCreateExt                          0x08022d73   Thumb Code   170  os_task.o(.text)
    OSTaskDel                                0x08022e1d   Thumb Code   294  os_task.o(.text)
    OSTaskDelReq                             0x08022f43   Thumb Code   144  os_task.o(.text)
    OSTaskNameGet                            0x08022fd3   Thumb Code   114  os_task.o(.text)
    OSTaskNameSet                            0x08023045   Thumb Code    98  os_task.o(.text)
    OSTaskResume                             0x080230a7   Thumb Code   154  os_task.o(.text)
    OSTaskStkChk                             0x08023141   Thumb Code   132  os_task.o(.text)
    OSTaskSuspend                            0x080231c5   Thumb Code   152  os_task.o(.text)
    OSTaskQuery                              0x0802325d   Thumb Code    82  os_task.o(.text)
    OSTaskRegGet                             0x080232af   Thumb Code    60  os_task.o(.text)
    OSTaskRegSet                             0x080232eb   Thumb Code    62  os_task.o(.text)
    OS_TaskReturn                            0x08023329   Thumb Code    18  os_task.o(.text)
    OSTimeDly                                0x08023355   Thumb Code   100  os_time.o(.text)
    OSTimeDlyHMSM                            0x080233b9   Thumb Code    86  os_time.o(.text)
    OSTimeDlyResume                          0x0802340f   Thumb Code   168  os_time.o(.text)
    OSTimeGet                                0x080234b7   Thumb Code    24  os_time.o(.text)
    OSTimeSet                                0x080234cf   Thumb Code    24  os_time.o(.text)
    OSTmrCreate                              0x08023537   Thumb Code    96  os_tmr.o(.text)
    OSTmrDel                                 0x0802360f   Thumb Code   124  os_tmr.o(.text)
    OSTmrNameGet                             0x0802368b   Thumb Code   114  os_tmr.o(.text)
    OSTmrRemainGet                           0x080236fd   Thumb Code   164  os_tmr.o(.text)
    OSTmrStateGet                            0x080237a1   Thumb Code    86  os_tmr.o(.text)
    OSTmrStart                               0x0802385b   Thumb Code   128  os_tmr.o(.text)
    OSTmrStop                                0x080238db   Thumb Code   210  os_tmr.o(.text)
    OSTmrSignal                              0x080239ad   Thumb Code    16  os_tmr.o(.text)
    OSTmr_Init                               0x08023a61   Thumb Code   172  os_tmr.o(.text)
    OSInitHookBegin                          0x08023b75   Thumb Code     8  os_cpu_c.o(.text)
    OSInitHookEnd                            0x08023b7d   Thumb Code     2  os_cpu_c.o(.text)
    OSTaskCreateHook                         0x08023b7f   Thumb Code     2  os_cpu_c.o(.text)
    OSTaskDelHook                            0x08023b81   Thumb Code     2  os_cpu_c.o(.text)
    OSTaskIdleHook                           0x08023b83   Thumb Code     2  os_cpu_c.o(.text)
    OSTaskStatHook                           0x08023b85   Thumb Code     2  os_cpu_c.o(.text)
    OSTaskStkInit                            0x08023b87   Thumb Code   426  os_cpu_c.o(.text)
    OSTaskSwHook                             0x08023d31   Thumb Code     2  os_cpu_c.o(.text)
    OSTCBInitHook                            0x08023d33   Thumb Code     2  os_cpu_c.o(.text)
    OSTimeTickHook                           0x08023d35   Thumb Code    30  os_cpu_c.o(.text)
    OSTaskReturnHook                         0x08023d53   Thumb Code     2  os_cpu_c.o(.text)
    OS_CPU_SR_Save                           0x08023d5d   Thumb Code     0  os_cpu_a.o(.text)
    OS_CPU_SR_Restore                        0x08023d65   Thumb Code     0  os_cpu_a.o(.text)
    OSStartHighRdy                           0x08023d6b   Thumb Code     0  os_cpu_a.o(.text)
    OSCtxSw                                  0x08023d8f   Thumb Code     0  os_cpu_a.o(.text)
    OSIntCtxSw                               0x08023d9d   Thumb Code     0  os_cpu_a.o(.text)
    PendSV_Handler                           0x08023dad   Thumb Code     0  os_cpu_a.o(.text)
    mymemcpy                                 0x08023e25   Thumb Code    26  malloc.o(.text)
    mymemset                                 0x08023e3f   Thumb Code    20  malloc.o(.text)
    mymem_init                               0x08023e53   Thumb Code    54  malloc.o(.text)
    my_mem_perused                           0x08023e89   Thumb Code    54  malloc.o(.text)
    my_mem_malloc                            0x08023ebf   Thumb Code   154  malloc.o(.text)
    my_mem_free                              0x08023f59   Thumb Code    94  malloc.o(.text)
    myfree                                   0x08023fb7   Thumb Code    32  malloc.o(.text)
    mymalloc                                 0x08023fd7   Thumb Code    36  malloc.o(.text)
    myrealloc                                0x08023ffb   Thumb Code    68  malloc.o(.text)
    disk_initialize                          0x08024051   Thumb Code    52  diskio.o(.text)
    disk_status                              0x08024085   Thumb Code     6  diskio.o(.text)
    disk_read                                0x0802408b   Thumb Code   122  diskio.o(.text)
    disk_write                               0x08024105   Thumb Code   122  diskio.o(.text)
    disk_ioctl                               0x0802417f   Thumb Code   170  diskio.o(.text)
    get_fattime                              0x08024229   Thumb Code     4  diskio.o(.text)
    ff_memalloc                              0x0802422d   Thumb Code    14  diskio.o(.text)
    ff_memfree                               0x0802423b   Thumb Code    14  diskio.o(.text)
    clust2sect                               0x080243ff   Thumb Code    26  ff.o(.text)
    get_fat                                  0x08024419   Thumb Code   232  ff.o(.text)
    put_fat                                  0x08024501   Thumb Code   310  ff.o(.text)
    dir_sdi                                  0x080247ab   Thumb Code   158  ff.o(.text)
    f_mount                                  0x0802581d   Thumb Code    86  ff.o(.text)
    f_open                                   0x08025873   Thumb Code   384  ff.o(.text)
    f_read                                   0x080259f3   Thumb Code   448  ff.o(.text)
    f_write                                  0x08025bb3   Thumb Code   490  ff.o(.text)
    f_sync                                   0x08025d9d   Thumb Code   176  ff.o(.text)
    f_close                                  0x08025e4d   Thumb Code    36  ff.o(.text)
    f_lseek                                  0x08025e71   Thumb Code   654  ff.o(.text)
    f_opendir                                0x080260ff   Thumb Code   136  ff.o(.text)
    f_closedir                               0x08026187   Thumb Code    22  ff.o(.text)
    f_readdir                                0x0802619d   Thumb Code   114  ff.o(.text)
    f_stat                                   0x0802620f   Thumb Code    84  ff.o(.text)
    f_getfree                                0x08026263   Thumb Code   258  ff.o(.text)
    f_truncate                               0x08026365   Thumb Code   184  ff.o(.text)
    f_unlink                                 0x0802641d   Thumb Code   194  ff.o(.text)
    f_mkdir                                  0x080264df   Thumb Code   380  ff.o(.text)
    f_chmod                                  0x0802665b   Thumb Code   112  ff.o(.text)
    f_utime                                  0x080266cb   Thumb Code   110  ff.o(.text)
    f_rename                                 0x08026739   Thumb Code   314  ff.o(.text)
    f_getlabel                               0x08026873   Thumb Code   190  ff.o(.text)
    f_setlabel                               0x08026931   Thumb Code   470  ff.o(.text)
    f_mkfs                                   0x08026b07   Thumb Code  1570  ff.o(.text)
    f_gets                                   0x08027129   Thumb Code    82  ff.o(.text)
    f_putc                                   0x080271bf   Thumb Code    64  ff.o(.text)
    f_puts                                   0x080271ff   Thumb Code    74  ff.o(.text)
    f_printf                                 0x08027249   Thumb Code   674  ff.o(.text)
    exfuns_init                              0x080274ed   Thumb Code   114  exfuns.o(.text)
    char_upper                               0x0802755f   Thumb Code    26  exfuns.o(.text)
    f_typetell                               0x08027579   Thumb Code   172  exfuns.o(.text)
    exf_getfree                              0x08027625   Thumb Code    74  exfuns.o(.text)
    ff_convert                               0x08027685   Thumb Code   146  mycc936.o(.text)
    ff_wtoupper                              0x08027717   Thumb Code    46  mycc936.o(.text)
    Get_HzMat                                0x08027751   Thumb Code   220  text.o(.text)
    Show_Font                                0x0802782d   Thumb Code   190  text.o(.text)
    Show_Str                                 0x080278eb   Thumb Code   192  text.o(.text)
    Show_Str_Mid                             0x080279ab   Thumb Code   106  text.o(.text)
    __use_no_semihosting                     0x08027a25   Thumb Code     2  use_no_semi_2.o(.text)
    __rt_ctype_table                         0x08027a29   Thumb Code    16  rt_ctype_table.o(.text)
    __aeabi_ldivmod                          0x08027a39   Thumb Code     0  llsdiv.o(.text)
    _ll_sdiv                                 0x08027a39   Thumb Code    72  llsdiv.o(.text)
    __2printf                                0x08027a81   Thumb Code    20  noretval__2printf.o(.text)
    __2sprintf                               0x08027a99   Thumb Code    34  noretval__2sprintf.o(.text)
    _printf_pre_padding                      0x08027ac1   Thumb Code    44  _printf_pad.o(.text)
    _printf_post_padding                     0x08027aed   Thumb Code    34  _printf_pad.o(.text)
    _printf_str                              0x08027b0f   Thumb Code    82  _printf_str.o(.text)
    _printf_int_dec                          0x08027b61   Thumb Code   104  _printf_dec.o(.text)
    _printf_int_hex                          0x08027bd9   Thumb Code    84  _printf_hex_int.o(.text)
    _printf_longlong_hex                     0x08027bd9   Thumb Code     0  _printf_hex_int.o(.text)
    __printf                                 0x08027c31   Thumb Code   388  __printf_flags_ss_wp.o(.text)
    memcmp                                   0x08027db9   Thumb Code    88  memcmp.o(.text)
    strcpy                                   0x08027e11   Thumb Code    72  strcpy.o(.text)
    strlen                                   0x08027e59   Thumb Code    62  strlen.o(.text)
    __aeabi_memcpy                           0x08027e97   Thumb Code     0  rt_memcpy_v6.o(.text)
    __rt_memcpy                              0x08027e97   Thumb Code   138  rt_memcpy_v6.o(.text)
    _memcpy_lastbytes                        0x08027efd   Thumb Code     0  rt_memcpy_v6.o(.text)
    __aeabi_memclr                           0x08027f21   Thumb Code     0  rt_memclr.o(.text)
    __rt_memclr                              0x08027f21   Thumb Code    68  rt_memclr.o(.text)
    _memset                                  0x08027f25   Thumb Code     0  rt_memclr.o(.text)
    __aeabi_memclr4                          0x08027f65   Thumb Code     0  rt_memclr_w.o(.text)
    __aeabi_memclr8                          0x08027f65   Thumb Code     0  rt_memclr_w.o(.text)
    __rt_memclr_w                            0x08027f65   Thumb Code    78  rt_memclr_w.o(.text)
    _memset_w                                0x08027f69   Thumb Code     0  rt_memclr_w.o(.text)
    strcmp                                   0x08027fb5   Thumb Code   128  strcmpv7m.o(.text)
    __use_two_region_memory                  0x08028035   Thumb Code     2  heapauxi.o(.text)
    __rt_heap_escrow$2region                 0x08028037   Thumb Code     2  heapauxi.o(.text)
    __rt_heap_expand$2region                 0x08028039   Thumb Code     2  heapauxi.o(.text)
    __I$use$semihosting                      0x0802803b   Thumb Code     0  use_no_semi.o(.text)
    __use_no_semihosting_swi                 0x0802803b   Thumb Code     2  use_no_semi.o(.text)
    __rt_locale                              0x0802803d   Thumb Code     8  rt_locale_intlibspace.o(.text)
    __aeabi_uldivmod                         0x08028045   Thumb Code     0  lludivv7m.o(.text)
    _ll_udiv                                 0x08028045   Thumb Code   238  lludivv7m.o(.text)
    _printf_int_common                       0x08028133   Thumb Code   178  _printf_intcommon.o(.text)
    _printf_char_common                      0x080281ef   Thumb Code    32  _printf_char_common.o(.text)
    _sputc                                   0x08028215   Thumb Code    10  _sputc.o(.text)
    _printf_cs_common                        0x0802821f   Thumb Code    20  _printf_char.o(.text)
    _printf_char                             0x08028233   Thumb Code    16  _printf_char.o(.text)
    _printf_string                           0x08028243   Thumb Code     8  _printf_char.o(.text)
    _printf_char_file                        0x0802824d   Thumb Code    32  _printf_char_file.o(.text)
    __aeabi_memcpy4                          0x08028271   Thumb Code     0  rt_memcpy_w.o(.text)
    __aeabi_memcpy8                          0x08028271   Thumb Code     0  rt_memcpy_w.o(.text)
    __rt_memcpy_w                            0x08028271   Thumb Code   100  rt_memcpy_w.o(.text)
    _memcpy_lastbytes_aligned                0x080282b9   Thumb Code     0  rt_memcpy_w.o(.text)
    __user_libspace                          0x080282d5   Thumb Code     8  libspace.o(.text)
    __user_perproc_libspace                  0x080282d5   Thumb Code     0  libspace.o(.text)
    __user_perthread_libspace                0x080282d5   Thumb Code     0  libspace.o(.text)
    ferror                                   0x080282dd   Thumb Code     8  ferror.o(.text)
    __user_setup_stackheap                   0x080282e5   Thumb Code    74  sys_stackheap_outer.o(.text)
    exit                                     0x0802832f   Thumb Code    12  exit.o(.text)
    _is_digit                                0x0802833b   Thumb Code    14  __printf_wp.o(i._is_digit)
    _get_lc_ctype                            0x08028349   Thumb Code    44  lc_ctype_c.o(locale$$code)
    __aeabi_d2uiz                            0x08028375   Thumb Code     0  dfixu.o(x$fpl$dfixu)
    _dfixu                                   0x08028375   Thumb Code    90  dfixu.o(x$fpl$dfixu)
    __aeabi_ui2d                             0x080283cf   Thumb Code     0  dflt_clz.o(x$fpl$dfltu)
    _dfltu                                   0x080283cf   Thumb Code    38  dflt_clz.o(x$fpl$dfltu)
    __aeabi_dmul                             0x080283f5   Thumb Code     0  dmul.o(x$fpl$dmul)
    _dmul                                    0x080283f5   Thumb Code   332  dmul.o(x$fpl$dmul)
    __fpl_dnaninf                            0x08028549   Thumb Code   156  dnaninf.o(x$fpl$dnaninf)
    __fpl_dretinf                            0x080285e5   Thumb Code    12  dretinf.o(x$fpl$dretinf)
    _fp_init                                 0x080285f1   Thumb Code    10  fpinit.o(x$fpl$fpinit)
    __fplib_config_fpu_vfp                   0x080285f9   Thumb Code     0  fpinit.o(x$fpl$fpinit)
    __fplib_config_pureend_doubles           0x080285f9   Thumb Code     0  fpinit.o(x$fpl$fpinit)
    __I$use$fp                               0x080285fa   Number         0  usenofp.o(x$fpl$usenofp)
    master                                   0x080285fa   Data          33  main.o(.constdata)
    slave                                    0x0802861b   Data          33  main.o(.constdata)
    asc2_1206                                0x0802863c   Data        1140  lcd.o(.constdata)
    asc2_1608                                0x08028ab0   Data        1520  lcd.o(.constdata)
    asc2_2412                                0x080290a0   Data        3420  lcd.o(.constdata)
    ov2640_sxga_init_reg_tbl                 0x08029dfc   Data         356  ov2640.o(.constdata)
    ov2640_svga_init_reg_tbl                 0x08029f60   Data         354  ov2640.o(.constdata)
    ov2640_jpeg_reg_tbl                      0x0802a0c2   Data          14  ov2640.o(.constdata)
    ov2640_rgb565_reg_tbl                    0x0802a0d0   Data          28  ov2640.o(.constdata)
    ov2640_yuv422_reg_tbl                    0x0802a0ec   Data          16  ov2640.o(.constdata)
    FSMC_DefaultTimingStruct                 0x0802a124   Data          28  stm32f4xx_fsmc.o(.constdata)
    ethbroadcast                             0x0802a140   Data           6  etharp.o(.constdata)
    ethzero                                  0x0802a146   Data           6  etharp.o(.constdata)
    ip_addr_any                              0x0802a14c   Data           4  ip_addr.o(.constdata)
    ip_addr_broadcast                        0x0802a150   Data           4  ip_addr.o(.constdata)
    tcp_state_str                            0x0802a18c   Data          44  tcp.o(.constdata)
    tcp_backoff                              0x0802a1b8   Data          13  tcp.o(.constdata)
    tcp_persist_backoff                      0x0802a1c5   Data           7  tcp.o(.constdata)
    tcp_pcb_lists                            0x0802a1cc   Data          16  tcp.o(.constdata)
    pvNullPointer                            0x0802a1dc   Data           4  sys_arch.o(.constdata)
    OSUnMapTbl                               0x0802a220   Data         256  os_core.o(.constdata)
    memtblsize                               0x0802a320   Data          12  malloc.o(.constdata)
    memblksize                               0x0802a32c   Data          12  malloc.o(.constdata)
    memsize                                  0x0802a338   Data          12  malloc.o(.constdata)
    FILE_TYPE_TBL                            0x0802a380   Data         112  exfuns.o(.constdata)
    Region$$Table$$Base                      0x0802ab98   Number         0  anon$$obj.o(Region$$Table)
    Region$$Table$$Limit                     0x0802abb8   Number         0  anon$$obj.o(Region$$Table)
    __ctype                                  0x0802abc5   Data           0  lc_ctype_c.o(locale$$data)
    mem3base                                 0x10000000   Data       61440  malloc.o(.ARM.__AT_0x10000000)
    mem3mapbase                              0x1000f000   Data        3840  malloc.o(.ARM.__AT_0x1000F000)
    sd_ok                                    0x20000000   Data           1  main.o(.data)
    password                                 0x20000001   Data          33  main.o(.data)
    SystemCoreClock                          0x20000024   Data           4  system_stm32f4xx.o(.data)
    AHBPrescTable                            0x20000028   Data          16  system_stm32f4xx.o(.data)
    ihome_start_flag                         0x20000038   Data           4  ihome_function.o(.data)
    camera_start                             0x2000003c   Data           4  ihome_function.o(.data)
    LED_TASK_STK                             0x20000040   Data           4  ihome_function.o(.data)
    DHT11_TASK_STK                           0x20000044   Data           4  ihome_function.o(.data)
    CAMERA_TASK_STK                          0x20000048   Data           4  ihome_function.o(.data)
    led_event                                0x2000004c   Data           4  ihome_function.o(.data)
    dht11_event                              0x20000050   Data           4  ihome_function.o(.data)
    camera_event                             0x20000054   Data           4  ihome_function.o(.data)
    pname                                    0x20000058   Data           4  camera.o(.data)
    camera_server_isready                    0x2000005c   Data           4  camera.o(.data)
    ov2640_mode                              0x20000060   Data           1  camera.o(.data)
    jpeg_data_len                            0x20000064   Data           4  camera.o(.data)
    jpeg_data_ok                             0x20000068   Data           1  camera.o(.data)
    jpeg_buf0                                0x2000006c   Data           4  camera.o(.data)
    jpeg_buf1                                0x20000070   Data           4  camera.o(.data)
    jpeg_data_buf                            0x20000074   Data           4  camera.o(.data)
    TIM5CH1_CAPTURE_STA                      0x20000078   Data           1  timer.o(.data)
    TIM5CH1_CAPTURE_VAL                      0x2000007c   Data           4  timer.o(.data)
    POINT_COLOR                              0x20000080   Data           2  lcd.o(.data)
    BACK_COLOR                               0x20000082   Data           2  lcd.o(.data)
    DMARxDscrTab                             0x20000084   Data           4  lan8720.o(.data)
    DMATxDscrTab                             0x20000088   Data           4  lan8720.o(.data)
    Rx_Buff                                  0x2000008c   Data           4  lan8720.o(.data)
    Tx_Buff                                  0x20000090   Data           4  lan8720.o(.data)
    ov_frame                                 0x20000094   Data           1  dcmi.o(.data)
    dcmi_rx_callback                         0x20000098   Data           4  dcmi.o(.data)
    W25QXX_TYPE                              0x2000009c   Data           2  w25qxx.o(.data)
    TransferError                            0x200000aa   Data           1  sdio_sdcard.o(.data)
    TransferEnd                              0x200000ab   Data           1  sdio_sdcard.o(.data)
    tempbuff                                 0x200000ac   Data           4  sdio_sdcard.o(.data)
    DMATxDescToSet                           0x200000c0   Data           4  stm32f4x7_eth.o(.data)
    DMARxDescToGet                           0x200000c4   Data           4  stm32f4x7_eth.o(.data)
    DMA_RX_FRAME_infos                       0x200000c8   Data           4  stm32f4x7_eth.o(.data)
    Frame_Rx_index                           0x200000cc   Data           4  stm32f4x7_eth.o(.data)
    __stdout                                 0x200000d4   Data           4  usart.o(.data)
    USART_RX_STA                             0x200000d8   Data           2  usart.o(.data)
    sys_cmd_tab                              0x200000dc   Data          28  usmart.o(.data)
    usmart_nametab                           0x200000f8   Data          48  usmart_config.o(.data)
    usmart_dev                               0x20000128   Data         244  usmart_config.o(.data)
    server_ip                                0x2000021c   Data           4  lwip_comm.o(.data)
    TCPTimer                                 0x20000220   Data           4  lwip_comm.o(.data)
    ARPTimer                                 0x20000224   Data           4  lwip_comm.o(.data)
    lwip_localtime                           0x20000228   Data           4  lwip_comm.o(.data)
    DHCPfineTimer                            0x2000022c   Data           4  lwip_comm.o(.data)
    DHCPcoarseTimer                          0x20000230   Data           4  lwip_comm.o(.data)
    TCPIP_THREAD_TASK_STK                    0x20000234   Data           4  lwip_comm.o(.data)
    LWIP_DHCP_TASK_STK                       0x20000238   Data           4  lwip_comm.o(.data)
    conn                                     0x2000023c   Data           4  tcp_server.o(.data)
    serverconn                               0x20000240   Data           4  tcp_server.o(.data)
    videoconn                                0x20000244   Data           4  tcp_server.o(.data)
    video_server                             0x20000248   Data           4  tcp_server.o(.data)
    isAccepted                               0x2000024c   Data           1  tcp_server.o(.data)
    isChecked                                0x2000024d   Data           1  tcp_server.o(.data)
    video_isConnected                        0x2000024e   Data           1  tcp_server.o(.data)
    TCPSERVER_TASK_STK                       0x20000250   Data           4  tcp_server.o(.data)
    TCPSERVER_RECV_TASK_STK                  0x20000254   Data           4  tcp_server.o(.data)
    user_addr                                0x20000258   Data           4  tcp_server.o(.data)
    video_addr                               0x2000025c   Data           4  tcp_server.o(.data)
    tcp_clientconn                           0x20000268   Data           4  tcp_client.o(.data)
    isConnected                              0x2000026c   Data           1  tcp_client.o(.data)
    isAuthed                                 0x2000026d   Data           1  tcp_client.o(.data)
    TCP_CLIENT_CONNECT_TASK_STK              0x20000270   Data           4  tcp_client.o(.data)
    TCP_CLIENT_RECV_TASK_STK                 0x20000274   Data           4  tcp_client.o(.data)
    CLIENT_HANDLE_TASK_STK                   0x20000278   Data           4  tcp_client.o(.data)
    TCP_SEND_TASK_STK                        0x2000027c   Data           4  tcp_client.o(.data)
    tcp_handle_event                         0x20000280   Data           4  tcp_client.o(.data)
    tcp_send_event                           0x20000284   Data           4  tcp_client.o(.data)
    current_netif                            0x20000298   Data           4  ip.o(.data)
    current_header                           0x2000029c   Data           4  ip.o(.data)
    current_iphdr_src                        0x200002a0   Data           4  ip.o(.data)
    current_iphdr_dest                       0x200002a4   Data           4  ip.o(.data)
    memp_memory                              0x200002f0   Data           4  memp.o(.data)
    netif_list                               0x200002f4   Data           4  netif.o(.data)
    netif_default                            0x200002f8   Data           4  netif.o(.data)
    tcp_ticks                                0x20000308   Data           4  tcp.o(.data)
    tcp_bound_pcbs                           0x2000030c   Data           4  tcp.o(.data)
    tcp_listen_pcbs                          0x20000310   Data           4  tcp.o(.data)
    tcp_active_pcbs                          0x20000314   Data           4  tcp.o(.data)
    tcp_tw_pcbs                              0x20000318   Data           4  tcp.o(.data)
    tcp_tmp_pcb                              0x2000031c   Data           4  tcp.o(.data)
    tcp_active_pcbs_changed                  0x20000320   Data           1  tcp.o(.data)
    tcp_input_pcb                            0x20000344   Data           4  tcp_in.o(.data)
    udp_pcbs                                 0x20000354   Data           4  udp.o(.data)
    ram_heap                                 0x20000358   Data           4  mem.o(.data)
    OSCtxSwCtr                               0x20000380   Data           4  os_core.o(.data)
    OSEventFreeList                          0x20000384   Data           4  os_core.o(.data)
    OSFlagFreeList                           0x20000388   Data           4  os_core.o(.data)
    OSCPUUsage                               0x2000038c   Data           1  os_core.o(.data)
    OSIdleCtrMax                             0x20000390   Data           4  os_core.o(.data)
    OSIdleCtrRun                             0x20000394   Data           4  os_core.o(.data)
    OSStatRdy                                0x20000398   Data           1  os_core.o(.data)
    OSIntNesting                             0x20000399   Data           1  os_core.o(.data)
    OSLockNesting                            0x2000039a   Data           1  os_core.o(.data)
    OSPrioCur                                0x2000039b   Data           1  os_core.o(.data)
    OSPrioHighRdy                            0x2000039c   Data           1  os_core.o(.data)
    OSRdyGrp                                 0x2000039d   Data           1  os_core.o(.data)
    OSRdyTbl                                 0x2000039e   Data           8  os_core.o(.data)
    OSRunning                                0x200003a6   Data           1  os_core.o(.data)
    OSTaskCtr                                0x200003a7   Data           1  os_core.o(.data)
    OSIdleCtr                                0x200003a8   Data           4  os_core.o(.data)
    OSTCBCur                                 0x200003ac   Data           4  os_core.o(.data)
    OSTCBFreeList                            0x200003b0   Data           4  os_core.o(.data)
    OSTCBHighRdy                             0x200003b4   Data           4  os_core.o(.data)
    OSTCBList                                0x200003b8   Data           4  os_core.o(.data)
    OSTickStepState                          0x200003bc   Data           1  os_core.o(.data)
    OSMemFreeList                            0x200003c0   Data           4  os_core.o(.data)
    OSQFreeList                              0x200003c4   Data           4  os_core.o(.data)
    OSTime                                   0x200003c8   Data           4  os_core.o(.data)
    OSTmrFree                                0x200003cc   Data           2  os_core.o(.data)
    OSTmrUsed                                0x200003ce   Data           2  os_core.o(.data)
    OSTmrTime                                0x200003d0   Data           4  os_core.o(.data)
    OSTmrSem                                 0x200003d4   Data           4  os_core.o(.data)
    OSTmrSemSignal                           0x200003d8   Data           4  os_core.o(.data)
    OSTmrFreeList                            0x200003dc   Data           4  os_core.o(.data)
    OSInterrputSum                           0x200003e0   Data           4  os_cpu_c.o(.data)
    mallco_dev                               0x200003e8   Data          36  malloc.o(.data)
    FLASH_SECTOR_COUNT                       0x2000040c   Data           2  diskio.o(.data)
    file                                     0x20000410   Data           4  exfuns.o(.data)
    ftemp                                    0x20000414   Data           4  exfuns.o(.data)
    br                                       0x20000418   Data           4  exfuns.o(.data)
    bw                                       0x2000041c   Data           4  exfuns.o(.data)
    fatbuf                                   0x20000420   Data           4  exfuns.o(.data)
    START_TASK_STK                           0x20000424   Data         512  main.o(.bss)
    led_q                                    0x20000624   Data          24  ihome_function.o(.bss)
    dht11_q                                  0x2000063c   Data          24  ihome_function.o(.bss)
    camera_q                                 0x20000654   Data          24  ihome_function.o(.bss)
    TIM5_ICInitStructure                     0x2000066c   Data          10  timer.o(.bss)
    lcddev                                   0x20000676   Data          14  lcd.o(.bss)
    DCMI_InitStructure                       0x20000684   Data          14  dcmi.o(.bss)
    W25QXX_BUFFER                            0x20000692   Data        4096  w25qxx.o(.bss)
    SDIO_InitStructure                       0x20001698   Data          24  sdio_sdcard.o(.bss)
    SDIO_CmdInitStructure                    0x200016b0   Data          20  sdio_sdcard.o(.bss)
    SDIO_DataInitStructure                   0x200016c4   Data          24  sdio_sdcard.o(.bss)
    SDCardInfo                               0x20001700   Data          88  sdio_sdcard.o(.bss)
    SDIO_DATA_BUFFER                         0x20001758   Data         512  sdio_sdcard.o(.bss)
    RX_Frame_Descriptor                      0x20001958   Data          12  stm32f4x7_eth.o(.bss)
    USART_RX_BUF                             0x20001964   Data         200  usart.o(.bss)
    lwipdev                                  0x20001a2c   Data          23  lwip_comm.o(.bss)
    lwip_netif                               0x20001a44   Data          52  lwip_comm.o(.bss)
    tcp_handle_q                             0x20001a78   Data          40  tcp_client.o(.bss)
    tcp_send_q                               0x20001aa0   Data          80  tcp_client.o(.bss)
    dhcp_rx_options_val                      0x20001bc8   Data          40  dhcp.o(.bss)
    dhcp_rx_options_given                    0x20001bf0   Data          10  dhcp.o(.bss)
    OSEventTbl                               0x20001ca8   Data         720  os_core.o(.bss)
    OSFlagTbl                                0x20001f78   Data          80  os_core.o(.bss)
    OSTaskStatStk                            0x20001fc8   Data         512  os_core.o(.bss)
    OSTaskIdleStk                            0x200021c8   Data         512  os_core.o(.bss)
    OSTCBPrioTbl                             0x200023c8   Data         256  os_core.o(.bss)
    OSTCBTbl                                 0x200024c8   Data        2688  os_core.o(.bss)
    OSMemTbl                                 0x20002f48   Data         120  os_core.o(.bss)
    OSQTbl                                   0x20002fc0   Data         720  os_core.o(.bss)
    OSTmrTbl                                 0x20003290   Data         640  os_core.o(.bss)
    OSTmrTaskStk                             0x20003510   Data         512  os_core.o(.bss)
    OSTmrWheelTbl                            0x20003710   Data          64  os_core.o(.bss)
    mem1base                                 0x20003760   Data       102400  malloc.o(.bss)
    mem1mapbase                              0x2001c760   Data        6400  malloc.o(.bss)
    fs                                       0x2001e06c   Data          12  exfuns.o(.bss)
    fileinfo                                 0x2001e078   Data          32  exfuns.o(.bss)
    dir                                      0x2001e098   Data          36  exfuns.o(.bss)
    ftinfo                                   0x2001e0bc   Data          33  fontupd.o(.bss)
    __libspace_start                         0x2001e0e0   Data          96  libspace.o(.bss)
    __temporary_stack_top$libspace           0x2001e140   Data           0  libspace.o(.bss)
    mem2base                                 0x68000000   Data       983040  malloc.o(.ARM.__AT_0x68000000)
    mem2mapbase                              0x680f0000   Data       61440  malloc.o(.ARM.__AT_0x680F0000)



==============================================================================

Memory Map of the image

  Image Entry point : 0x08000189

  Load Region LR_IROM1 (Base: 0x08000000, Size: 0x0002b0ec, Max: 0x00100000, ABSOLUTE, COMPRESSED[0x0002adb0])

    Execution Region ER_IROM1 (Base: 0x08000000, Size: 0x0002acc8, Max: 0x00100000, ABSOLUTE)

    Base Addr    Size         Type   Attr      Idx    E Section Name        Object

    0x08000000   0x00000188   Data   RO          973    RESET               startup_stm32f40_41xxx.o
    0x08000188   0x00000008   Code   RO         3101  * !!!main             c_w.l(__main.o)
    0x08000190   0x00000034   Code   RO         3313    !!!scatter          c_w.l(__scatter.o)
    0x080001c4   0x0000005a   Code   RO         3311    !!dczerorl2         c_w.l(__dczerorl2.o)
    0x0800021e   0x00000002   PAD
    0x08000220   0x0000001c   Code   RO         3315    !!handler_zi        c_w.l(__scatter_zi.o)
    0x0800023c   0x00000000   Code   RO         3082    .ARM.Collect$$_printf_percent$$00000000  c_w.l(_printf_percent.o)
    0x0800023c   0x00000006   Code   RO         3080    .ARM.Collect$$_printf_percent$$00000009  c_w.l(_printf_d.o)
    0x08000242   0x00000006   Code   RO         3081    .ARM.Collect$$_printf_percent$$0000000A  c_w.l(_printf_u.o)
    0x08000248   0x00000006   Code   RO         3079    .ARM.Collect$$_printf_percent$$0000000C  c_w.l(_printf_x.o)
    0x0800024e   0x00000006   Code   RO         3077    .ARM.Collect$$_printf_percent$$00000013  c_w.l(_printf_c.o)
    0x08000254   0x00000006   Code   RO         3078    .ARM.Collect$$_printf_percent$$00000014  c_w.l(_printf_s.o)
    0x0800025a   0x00000004   Code   RO         3135    .ARM.Collect$$_printf_percent$$00000017  c_w.l(_printf_percent_end.o)
    0x0800025e   0x00000002   Code   RO         3232    .ARM.Collect$$libinit$$00000000  c_w.l(libinit.o)
    0x08000260   0x00000004   Code   RO         3174    .ARM.Collect$$libinit$$00000001  c_w.l(libinit2.o)
    0x08000264   0x00000000   Code   RO         3177    .ARM.Collect$$libinit$$00000004  c_w.l(libinit2.o)
    0x08000264   0x00000000   Code   RO         3180    .ARM.Collect$$libinit$$0000000A  c_w.l(libinit2.o)
    0x08000264   0x00000000   Code   RO         3182    .ARM.Collect$$libinit$$0000000C  c_w.l(libinit2.o)
    0x08000264   0x00000000   Code   RO         3184    .ARM.Collect$$libinit$$0000000E  c_w.l(libinit2.o)
    0x08000264   0x00000006   Code   RO         3185    .ARM.Collect$$libinit$$0000000F  c_w.l(libinit2.o)
    0x0800026a   0x00000000   Code   RO         3187    .ARM.Collect$$libinit$$00000011  c_w.l(libinit2.o)
    0x0800026a   0x0000000c   Code   RO         3188    .ARM.Collect$$libinit$$00000012  c_w.l(libinit2.o)
    0x08000276   0x00000000   Code   RO         3189    .ARM.Collect$$libinit$$00000013  c_w.l(libinit2.o)
    0x08000276   0x00000000   Code   RO         3191    .ARM.Collect$$libinit$$00000015  c_w.l(libinit2.o)
    0x08000276   0x00000000   Code   RO         3193    .ARM.Collect$$libinit$$00000017  c_w.l(libinit2.o)
    0x08000276   0x00000000   Code   RO         3195    .ARM.Collect$$libinit$$00000019  c_w.l(libinit2.o)
    0x08000276   0x00000000   Code   RO         3197    .ARM.Collect$$libinit$$0000001B  c_w.l(libinit2.o)
    0x08000276   0x00000000   Code   RO         3199    .ARM.Collect$$libinit$$0000001D  c_w.l(libinit2.o)
    0x08000276   0x00000000   Code   RO         3201    .ARM.Collect$$libinit$$0000001F  c_w.l(libinit2.o)
    0x08000276   0x00000000   Code   RO         3203    .ARM.Collect$$libinit$$00000021  c_w.l(libinit2.o)
    0x08000276   0x00000000   Code   RO         3205    .ARM.Collect$$libinit$$00000023  c_w.l(libinit2.o)
    0x08000276   0x00000000   Code   RO         3207    .ARM.Collect$$libinit$$00000025  c_w.l(libinit2.o)
    0x08000276   0x00000000   Code   RO         3211    .ARM.Collect$$libinit$$0000002C  c_w.l(libinit2.o)
    0x08000276   0x00000000   Code   RO         3213    .ARM.Collect$$libinit$$0000002E  c_w.l(libinit2.o)
    0x08000276   0x00000000   Code   RO         3215    .ARM.Collect$$libinit$$00000030  c_w.l(libinit2.o)
    0x08000276   0x00000000   Code   RO         3217    .ARM.Collect$$libinit$$00000032  c_w.l(libinit2.o)
    0x08000276   0x00000002   Code   RO         3218    .ARM.Collect$$libinit$$00000033  c_w.l(libinit2.o)
    0x08000278   0x00000002   Code   RO         3275    .ARM.Collect$$libshutdown$$00000000  c_w.l(libshutdown.o)
    0x0800027a   0x00000000   Code   RO         3282    .ARM.Collect$$libshutdown$$00000003  c_w.l(libshutdown2.o)
    0x0800027a   0x00000000   Code   RO         3285    .ARM.Collect$$libshutdown$$00000006  c_w.l(libshutdown2.o)
    0x0800027a   0x00000000   Code   RO         3288    .ARM.Collect$$libshutdown$$00000009  c_w.l(libshutdown2.o)
    0x0800027a   0x00000000   Code   RO         3290    .ARM.Collect$$libshutdown$$0000000B  c_w.l(libshutdown2.o)
    0x0800027a   0x00000000   Code   RO         3293    .ARM.Collect$$libshutdown$$0000000E  c_w.l(libshutdown2.o)
    0x0800027a   0x00000002   Code   RO         3294    .ARM.Collect$$libshutdown$$0000000F  c_w.l(libshutdown2.o)
    0x0800027c   0x00000000   Code   RO         3117    .ARM.Collect$$rtentry$$00000000  c_w.l(__rtentry.o)
    0x0800027c   0x00000000   Code   RO         3150    .ARM.Collect$$rtentry$$00000002  c_w.l(__rtentry2.o)
    0x0800027c   0x00000006   Code   RO         3162    .ARM.Collect$$rtentry$$00000004  c_w.l(__rtentry4.o)
    0x08000282   0x00000000   Code   RO         3152    .ARM.Collect$$rtentry$$00000009  c_w.l(__rtentry2.o)
    0x08000282   0x00000004   Code   RO         3153    .ARM.Collect$$rtentry$$0000000A  c_w.l(__rtentry2.o)
    0x08000286   0x00000000   Code   RO         3155    .ARM.Collect$$rtentry$$0000000C  c_w.l(__rtentry2.o)
    0x08000286   0x00000008   Code   RO         3156    .ARM.Collect$$rtentry$$0000000D  c_w.l(__rtentry2.o)
    0x0800028e   0x00000002   Code   RO         3235    .ARM.Collect$$rtexit$$00000000  c_w.l(rtexit.o)
    0x08000290   0x00000000   Code   RO         3248    .ARM.Collect$$rtexit$$00000002  c_w.l(rtexit2.o)
    0x08000290   0x00000004   Code   RO         3249    .ARM.Collect$$rtexit$$00000003  c_w.l(rtexit2.o)
    0x08000294   0x00000006   Code   RO         3250    .ARM.Collect$$rtexit$$00000004  c_w.l(rtexit2.o)
    0x0800029a   0x00000002   PAD
    0x0800029c   0x00000010   Code   RO         1271    .emb_text           sys.o
    0x080002ac   0x000003cc   Code   RO            3    .text               main.o
    0x08000678   0x00000014   Code   RO          375    .text               stm32f4xx_it.o
    0x0800068c   0x00000210   Code   RO          424    .text               system_stm32f4xx.o
    0x0800089c   0x00000e48   Code   RO          450    .text               ihome_function.o
    0x080016e4   0x000005a4   Code   RO          521    .text               camera.o
    0x08001c88   0x00000070   Code   RO          576    .text               led.o
    0x08001cf8   0x000001f0   Code   RO          596    .text               timer.o
    0x08001ee8   0x00004c80   Code   RO          624    .text               lcd.o
    0x08006b68   0x00000390   Code   RO          662    .text               lan8720.o
    0x08006ef8   0x000003b4   Code   RO          693    .text               sram.o
    0x080072ac   0x00000194   Code   RO          713    .text               dht11.o
    0x08007440   0x00000068   Code   RO          733    .text               lsens.o
    0x080074a8   0x0000008c   Code   RO          753    .text               adc3.o
    0x08007534   0x000000ac   Code   RO          773    .text               pwm.o
    0x080075e0   0x00000040   Code   RO          796    .text               beep.o
    0x08007620   0x00000304   Code   RO          816    .text               dcmi.o
    0x08007924   0x000005e4   Code   RO          843    .text               ov2640.o
    0x08007f08   0x00000274   Code   RO          869    .text               sccb.o
    0x0800817c   0x00000388   Code   RO          889    .text               w25qxx.o
    0x08008504   0x00001d60   Code   RO          919    .text               sdio_sdcard.o
    0x0800a264   0x00000118   Code   RO          953    .text               spi.o
    0x0800a37c   0x00000040   Code   RO          974    .text               startup_stm32f40_41xxx.o
    0x0800a3bc   0x000000e0   Code   RO          980    .text               misc.o
    0x0800a49c   0x00000294   Code   RO         1000    .text               stm32f4xx_gpio.o
    0x0800a730   0x0000065c   Code   RO         1020    .text               stm32f4xx_rcc.o
    0x0800ad8c   0x00000094   Code   RO         1042    .text               stm32f4xx_syscfg.o
    0x0800ae20   0x00000ca2   Code   RO         1062    .text               stm32f4xx_tim.o
    0x0800bac2   0x00000002   PAD
    0x0800bac4   0x00000454   Code   RO         1082    .text               stm32f4xx_usart.o
    0x0800bf18   0x00000e40   Code   RO         1102    .text               stm32f4x7_eth.o
    0x0800cd58   0x00000464   Code   RO         1126    .text               stm32f4xx_adc.o
    0x0800d1bc   0x000005c8   Code   RO         1146    .text               stm32f4xx_fsmc.o
    0x0800d784   0x000003a8   Code   RO         1169    .text               stm32f4xx_dma.o
    0x0800db2c   0x0000018c   Code   RO         1189    .text               stm32f4xx_dcmi.o
    0x0800dcb8   0x00000480   Code   RO         1209    .text               stm32f4xx_spi.o
    0x0800e138   0x000001dc   Code   RO         1229    .text               stm32f4xx_sdio.o
    0x0800e314   0x00000128   Code   RO         1249    .text               delay.o
    0x0800e43c   0x0000015c   Code   RO         1289    .text               usart.o
    0x0800e598   0x00000c3c   Code   RO         1320    .text               usmart.o
    0x0800f1d4   0x00000528   Code   RO         1365    .text               usmart_str.o
    0x0800f6fc   0x00000760   Code   RO         1385    .text               lwip_comm.o
    0x0800fe5c   0x00000420   Code   RO         1471    .text               tcp_server.o
    0x0801027c   0x000014dc   Code   RO         1512    .text               tcp_client.o
    0x08011758   0x00000e84   Code   RO         1552    .text               etharp.o
    0x080125dc   0x00000228   Code   RO         1587    .text               ethernetif.o
    0x08012804   0x00000424   Code   RO         1638    .text               icmp.o
    0x08012c28   0x000002b4   Code   RO         1699    .text               inet_chksum.o
    0x08012edc   0x00000430   Code   RO         1719    .text               ip.o
    0x0801330c   0x0000032c   Code   RO         1754    .text               ip_addr.o
    0x08013638   0x00000a28   Code   RO         1791    .text               ip_frag.o
    0x08014060   0x0000003e   Code   RO         1816    .text               def.o
    0x0801409e   0x00000002   PAD
    0x080140a0   0x00001a6c   Code   RO         1836    .text               dhcp.o
    0x08015b0c   0x00000024   Code   RO         1878    .text               init.o
    0x08015b30   0x000001d4   Code   RO         1913    .text               memp.o
    0x08015d04   0x00000340   Code   RO         1954    .text               netif.o
    0x08016044   0x000010a0   Code   RO         1984    .text               pbuf.o
    0x080170e4   0x0000024c   Code   RO         2004    .text               raw.o
    0x08017330   0x0000148c   Code   RO         2040    .text               tcp.o
    0x080187bc   0x00001878   Code   RO         2072    .text               tcp_in.o
    0x0801a034   0x00001346   Code   RO         2103    .text               tcp_out.o
    0x0801b37a   0x00000002   PAD
    0x0801b37c   0x00000330   Code   RO         2124    .text               timers.o
    0x0801b6ac   0x000005e8   Code   RO         2173    .text               udp.o
    0x0801bc94   0x00000744   Code   RO         2210    .text               mem.o
    0x0801c3d8   0x000003d4   Code   RO         2233    .text               sys_arch.o
    0x0801c7ac   0x00000ba4   Code   RO         2260    .text               api_lib.o
    0x0801d350   0x00001790   Code   RO         2299    .text               api_msg.o
    0x0801eae0   0x000003b0   Code   RO         2342    .text               netbuf.o
    0x0801ee90   0x00001c14   Code   RO         2396    .text               sockets.o
    0x08020aa4   0x000003b8   Code   RO         2420    .text               tcpip.o
    0x08020e5c   0x00000970   Code   RO         2451    .text               os_core.o
    0x080217cc   0x0000080c   Code   RO         2479    .text               os_flag.o
    0x08021fd8   0x000001e4   Code   RO         2519    .text               os_mem.o
    0x080221bc   0x000005f8   Code   RO         2559    .text               os_q.o
    0x080227b4   0x000003dc   Code   RO         2579    .text               os_sem.o
    0x08022b90   0x000007c4   Code   RO         2599    .text               os_task.o
    0x08023354   0x000001b0   Code   RO         2619    .text               os_time.o
    0x08023504   0x00000670   Code   RO         2639    .text               os_tmr.o
    0x08023b74   0x000001e8   Code   RO         2659    .text               os_cpu_c.o
    0x08023d5c   0x000000c8   Code   RO         2687    .text               os_cpu_a.o
    0x08023e24   0x0000022c   Code   RO         2692    .text               malloc.o
    0x08024050   0x00000200   Code   RO         2847    .text               diskio.o
    0x08024250   0x0000329a   Code   RO         2871    .text               ff.o
    0x080274ea   0x00000002   PAD
    0x080274ec   0x00000198   Code   RO         2892    .text               exfuns.o
    0x08027684   0x000000cc   Code   RO         2944    .text               mycc936.o
    0x08027750   0x000002d4   Code   RO         2994    .text               text.o
    0x08027a24   0x00000002   Code   RO         3014    .text               c_w.l(use_no_semi_2.o)
    0x08027a26   0x00000002   PAD
    0x08027a28   0x00000010   Code   RO         3016    .text               c_w.l(rt_ctype_table.o)
    0x08027a38   0x00000048   Code   RO         3018    .text               c_w.l(llsdiv.o)
    0x08027a80   0x00000018   Code   RO         3024    .text               c_w.l(noretval__2printf.o)
    0x08027a98   0x00000028   Code   RO         3026    .text               c_w.l(noretval__2sprintf.o)
    0x08027ac0   0x0000004e   Code   RO         3030    .text               c_w.l(_printf_pad.o)
    0x08027b0e   0x00000052   Code   RO         3032    .text               c_w.l(_printf_str.o)
    0x08027b60   0x00000078   Code   RO         3034    .text               c_w.l(_printf_dec.o)
    0x08027bd8   0x00000058   Code   RO         3039    .text               c_w.l(_printf_hex_int.o)
    0x08027c30   0x00000188   Code   RO         3074    .text               c_w.l(__printf_flags_ss_wp.o)
    0x08027db8   0x00000058   Code   RO         3083    .text               c_w.l(memcmp.o)
    0x08027e10   0x00000048   Code   RO         3085    .text               c_w.l(strcpy.o)
    0x08027e58   0x0000003e   Code   RO         3087    .text               c_w.l(strlen.o)
    0x08027e96   0x0000008a   Code   RO         3091    .text               c_w.l(rt_memcpy_v6.o)
    0x08027f20   0x00000044   Code   RO         3093    .text               c_w.l(rt_memclr.o)
    0x08027f64   0x0000004e   Code   RO         3095    .text               c_w.l(rt_memclr_w.o)
    0x08027fb2   0x00000002   PAD
    0x08027fb4   0x00000080   Code   RO         3097    .text               c_w.l(strcmpv7m.o)
    0x08028034   0x00000006   Code   RO         3099    .text               c_w.l(heapauxi.o)
    0x0802803a   0x00000002   Code   RO         3115    .text               c_w.l(use_no_semi.o)
    0x0802803c   0x00000008   Code   RO         3121    .text               c_w.l(rt_locale_intlibspace.o)
    0x08028044   0x000000ee   Code   RO         3123    .text               c_w.l(lludivv7m.o)
    0x08028132   0x000000b2   Code   RO         3125    .text               c_w.l(_printf_intcommon.o)
    0x080281e4   0x00000030   Code   RO         3127    .text               c_w.l(_printf_char_common.o)
    0x08028214   0x0000000a   Code   RO         3129    .text               c_w.l(_sputc.o)
    0x0802821e   0x0000002c   Code   RO         3131    .text               c_w.l(_printf_char.o)
    0x0802824a   0x00000002   PAD
    0x0802824c   0x00000024   Code   RO         3133    .text               c_w.l(_printf_char_file.o)
    0x08028270   0x00000064   Code   RO         3139    .text               c_w.l(rt_memcpy_w.o)
    0x080282d4   0x00000008   Code   RO         3146    .text               c_w.l(libspace.o)
    0x080282dc   0x00000008   Code   RO         3170    .text               c_w.l(ferror.o)
    0x080282e4   0x0000004a   Code   RO         3219    .text               c_w.l(sys_stackheap_outer.o)
    0x0802832e   0x0000000c   Code   RO         3223    .text               c_w.l(exit.o)
    0x0802833a   0x0000000e   Code   RO         3067    i._is_digit         c_w.l(__printf_wp.o)
    0x08028348   0x0000002c   Code   RO         3137    locale$$code        c_w.l(lc_ctype_c.o)
    0x08028374   0x0000005a   Code   RO         3103    x$fpl$dfixu         fz_wm.l(dfixu.o)
    0x080283ce   0x00000026   Code   RO         3107    x$fpl$dfltu         fz_wm.l(dflt_clz.o)
    0x080283f4   0x00000154   Code   RO         3113    x$fpl$dmul          fz_wm.l(dmul.o)
    0x08028548   0x0000009c   Code   RO         3141    x$fpl$dnaninf       fz_wm.l(dnaninf.o)
    0x080285e4   0x0000000c   Code   RO         3143    x$fpl$dretinf       fz_wm.l(dretinf.o)
    0x080285f0   0x0000000a   Code   RO         3233    x$fpl$fpinit        fz_wm.l(fpinit.o)
    0x080285fa   0x00000000   Code   RO         3145    x$fpl$usenofp       fz_wm.l(usenofp.o)
    0x080285fa   0x00000042   Data   RO            5    .constdata          main.o
    0x0802863c   0x000017c0   Data   RO          626    .constdata          lcd.o
    0x08029dfc   0x00000328   Data   RO          844    .constdata          ov2640.o
    0x0802a124   0x0000001c   Data   RO         1147    .constdata          stm32f4xx_fsmc.o
    0x0802a140   0x0000000c   Data   RO         1554    .constdata          etharp.o
    0x0802a14c   0x00000008   Data   RO         1756    .constdata          ip_addr.o
    0x0802a154   0x00000038   Data   RO         1915    .constdata          memp.o
    0x0802a18c   0x00000050   Data   RO         2041    .constdata          tcp.o
    0x0802a1dc   0x00000004   Data   RO         2234    .constdata          sys_arch.o
    0x0802a1e0   0x00000040   Data   RO         2398    .constdata          sockets.o
    0x0802a220   0x00000100   Data   RO         2453    .constdata          os_core.o
    0x0802a320   0x00000024   Data   RO         2698    .constdata          malloc.o
    0x0802a344   0x0000003a   Data   RO         2873    .constdata          ff.o
    0x0802a37e   0x00000002   PAD
    0x0802a380   0x00000070   Data   RO         2894    .constdata          exfuns.o
    0x0802a3f0   0x000003c0   Data   RO         2945    .constdata          mycc936.o
    0x0802a7b0   0x00000028   Data   RO         3040    .constdata          c_w.l(_printf_hex_int.o)
    0x0802a7d8   0x00000011   Data   RO         3075    .constdata          c_w.l(__printf_flags_ss_wp.o)
    0x0802a7e9   0x00000003   PAD
    0x0802a7ec   0x00000028   Data   RO         1321    .conststring        usmart.o
    0x0802a814   0x00000107   Data   RO         1344    .conststring        usmart_config.o
    0x0802a91b   0x00000001   PAD
    0x0802a91c   0x00000044   Data   RO         1555    .conststring        etharp.o
    0x0802a960   0x0000008c   Data   RO         1838    .conststring        dhcp.o
    0x0802a9ec   0x000000a0   Data   RO         1916    .conststring        memp.o
    0x0802aa8c   0x0000006d   Data   RO         2042    .conststring        tcp.o
    0x0802aaf9   0x00000003   PAD
    0x0802aafc   0x00000055   Data   RO         2104    .conststring        tcp_out.o
    0x0802ab51   0x00000003   PAD
    0x0802ab54   0x00000044   Data   RO         2895    .conststring        exfuns.o
    0x0802ab98   0x00000020   Data   RO         3309    Region$$Table       anon$$obj.o
    0x0802abb8   0x00000110   Data   RO         3136    locale$$data        c_w.l(lc_ctype_c.o)


    Execution Region RW_IRAM1 (Base: 0x20000000, Size: 0x0001e740, Max: 0x00020000, ABSOLUTE, COMPRESSED[0x000000e8])

    Base Addr    Size         Type   Attr      Idx    E Section Name        Object

    0x20000000   0x00000022   Data   RW            6    .data               main.o
    0x20000022   0x00000002   PAD
    0x20000024   0x00000014   Data   RW          425    .data               system_stm32f4xx.o
    0x20000038   0x00000020   Data   RW          452    .data               ihome_function.o
    0x20000058   0x00000020   Data   RW          522    .data               camera.o
    0x20000078   0x00000008   Data   RW          598    .data               timer.o
    0x20000080   0x00000004   Data   RW          627    .data               lcd.o
    0x20000084   0x00000010   Data   RW          663    .data               lan8720.o
    0x20000094   0x00000008   Data   RW          818    .data               dcmi.o
    0x2000009c   0x00000002   Data   RW          891    .data               w25qxx.o
    0x2000009e   0x00000002   PAD
    0x200000a0   0x00000010   Data   RW          921    .data               sdio_sdcard.o
    0x200000b0   0x00000010   Data   RW         1021    .data               stm32f4xx_rcc.o
    0x200000c0   0x00000010   Data   RW         1104    .data               stm32f4x7_eth.o
    0x200000d0   0x00000004   Data   RW         1250    .data               delay.o
    0x200000d4   0x00000006   Data   RW         1291    .data               usart.o
    0x200000da   0x00000002   PAD
    0x200000dc   0x0000001c   Data   RW         1322    .data               usmart.o
    0x200000f8   0x00000124   Data   RW         1345    .data               usmart_config.o
    0x2000021c   0x00000020   Data   RW         1387    .data               lwip_comm.o
    0x2000023c   0x0000002a   Data   RW         1472    .data               tcp_server.o
    0x20000266   0x00000002   PAD
    0x20000268   0x0000002c   Data   RW         1514    .data               tcp_client.o
    0x20000294   0x00000001   Data   RW         1556    .data               etharp.o
    0x20000295   0x00000003   PAD
    0x20000298   0x00000012   Data   RW         1720    .data               ip.o
    0x200002aa   0x00000002   PAD
    0x200002ac   0x00000006   Data   RW         1792    .data               ip_frag.o
    0x200002b2   0x00000002   PAD
    0x200002b4   0x00000004   Data   RW         1839    .data               dhcp.o
    0x200002b8   0x0000003c   Data   RW         1917    .data               memp.o
    0x200002f4   0x00000009   Data   RW         1955    .data               netif.o
    0x200002fd   0x00000003   PAD
    0x20000300   0x00000004   Data   RW         2005    .data               raw.o
    0x20000304   0x00000024   Data   RW         2043    .data               tcp.o
    0x20000328   0x00000020   Data   RW         2074    .data               tcp_in.o
    0x20000348   0x00000008   Data   RW         2125    .data               timers.o
    0x20000350   0x00000008   Data   RW         2174    .data               udp.o
    0x20000358   0x00000014   Data   RW         2211    .data               mem.o
    0x2000036c   0x00000008   Data   RW         2399    .data               sockets.o
    0x20000374   0x0000000c   Data   RW         2421    .data               tcpip.o
    0x20000380   0x00000060   Data   RW         2454    .data               os_core.o
    0x200003e0   0x00000006   Data   RW         2660    .data               os_cpu_c.o
    0x200003e6   0x00000002   PAD
    0x200003e8   0x00000024   Data   RW         2699    .data               malloc.o
    0x2000040c   0x00000002   Data   RW         2848    .data               diskio.o
    0x2000040e   0x00000002   Data   RW         2874    .data               ff.o
    0x20000410   0x00000014   Data   RW         2896    .data               exfuns.o
    0x20000424   0x00000200   Zero   RW            4    .bss                main.o
    0x20000624   0x00000048   Zero   RW          451    .bss                ihome_function.o
    0x2000066c   0x0000000a   Zero   RW          597    .bss                timer.o
    0x20000676   0x0000000e   Zero   RW          625    .bss                lcd.o
    0x20000684   0x0000000e   Zero   RW          817    .bss                dcmi.o
    0x20000692   0x00001000   Zero   RW          890    .bss                w25qxx.o
    0x20001692   0x00000006   PAD
    0x20001698   0x000002c0   Zero   RW          920    .bss                sdio_sdcard.o
    0x20001958   0x0000000c   Zero   RW         1103    .bss                stm32f4x7_eth.o
    0x20001964   0x000000c8   Zero   RW         1290    .bss                usart.o
    0x20001a2c   0x0000004c   Zero   RW         1386    .bss                lwip_comm.o
    0x20001a78   0x00000078   Zero   RW         1513    .bss                tcp_client.o
    0x20001af0   0x000000c8   Zero   RW         1553    .bss                etharp.o
    0x20001bb8   0x00000010   Zero   RW         1755    .bss                ip_addr.o
    0x20001bc8   0x00000032   Zero   RW         1837    .bss                dhcp.o
    0x20001bfa   0x00000002   PAD
    0x20001bfc   0x00000038   Zero   RW         1914    .bss                memp.o
    0x20001c34   0x00000014   Zero   RW         2073    .bss                tcp_in.o
    0x20001c48   0x00000060   Zero   RW         2397    .bss                sockets.o
    0x20001ca8   0x00001aa8   Zero   RW         2452    .bss                os_core.o
    0x20003750   0x00000010   PAD
    0x20003760   0x0001a900   Zero   RW         2697    .bss                malloc.o
    0x2001e060   0x0000000c   Zero   RW         2872    .bss                ff.o
    0x2001e06c   0x00000050   Zero   RW         2893    .bss                exfuns.o
    0x2001e0bc   0x00000021   Zero   RW         2966    .bss                fontupd.o
    0x2001e0dd   0x00000003   PAD
    0x2001e0e0   0x00000060   Zero   RW         3147    .bss                c_w.l(libspace.o)
    0x2001e140   0x00000200   Zero   RW          972    HEAP                startup_stm32f40_41xxx.o
    0x2001e340   0x00000400   Zero   RW          971    STACK               startup_stm32f40_41xxx.o



  Load Region LR$$.ARM.__AT_0x10000000 (Base: 0x10000000, Size: 0x00000000, Max: 0x0000f000, ABSOLUTE)

    Execution Region ER$$.ARM.__AT_0x10000000 (Base: 0x10000000, Size: 0x0000f000, Max: 0x0000f000, ABSOLUTE, UNINIT)

    Base Addr    Size         Type   Attr      Idx    E Section Name        Object

    0x10000000   0x0000f000   Zero   RW         2693    .ARM.__AT_0x10000000  malloc.o



  Load Region LR$$.ARM.__AT_0x1000F000 (Base: 0x1000f000, Size: 0x00000000, Max: 0x00000f00, ABSOLUTE)

    Execution Region ER$$.ARM.__AT_0x1000F000 (Base: 0x1000f000, Size: 0x00000f00, Max: 0x00000f00, ABSOLUTE, UNINIT)

    Base Addr    Size         Type   Attr      Idx    E Section Name        Object

    0x1000f000   0x00000f00   Zero   RW         2694    .ARM.__AT_0x1000F000  malloc.o



  Load Region LR$$.ARM.__AT_0x68000000 (Base: 0x68000000, Size: 0x00000000, Max: 0x000f0000, ABSOLUTE)

    Execution Region ER$$.ARM.__AT_0x68000000 (Base: 0x68000000, Size: 0x000f0000, Max: 0x000f0000, ABSOLUTE, UNINIT)

    Base Addr    Size         Type   Attr      Idx    E Section Name        Object

    0x68000000   0x000f0000   Zero   RW         2695    .ARM.__AT_0x68000000  malloc.o



  Load Region LR$$.ARM.__AT_0x680F0000 (Base: 0x680f0000, Size: 0x00000000, Max: 0x0000f000, ABSOLUTE)

    Execution Region ER$$.ARM.__AT_0x680F0000 (Base: 0x680f0000, Size: 0x0000f000, Max: 0x0000f000, ABSOLUTE, UNINIT)

    Base Addr    Size         Type   Attr      Idx    E Section Name        Object

    0x680f0000   0x0000f000   Zero   RW         2696    .ARM.__AT_0x680F0000  malloc.o


==============================================================================

Image component sizes


      Code (inc. data)   RO Data    RW Data    ZI Data      Debug   Object Name

       140          4          0          0          0        797   adc3.o
      2980        816          0          0          0      17229   api_lib.o
      6032       1224          0          0          0      10179   api_msg.o
        64          4          0          0          0        520   beep.o
         0          0          0          0          0       2528   bmp.o
      1444        216          0         32          0       3744   camera.o
       772         44          0          8         14       3057   dcmi.o
        62          0          0          0          0       1218   def.o
       296         16          0          4          0       1773   delay.o
      6764       1090        140          4         50      13166   dhcp.o
       404         12          0          0          0       2182   dht11.o
       512          8          0          2          0       4206   diskio.o
      3716        604         80          1        200       9795   etharp.o
       552        134          0          0          0       4730   ethernetif.o
       408         22        180         20         80       2724   exfuns.o
     12954        136         58          2         12      34766   ff.o
         0          0          0          0         33       1409   fontupd.o
      1060        372          0          0          0       2646   icmp.o
      3656        688          0         32         72       9916   ihome_function.o
         0          0          0          0          0       5660   inet.o
       692        104          0          0          0       2989   inet_chksum.o
        36          0          0          0          0       4568   init.o
      1072        172          0         18          0       7095   ip.o
       812        112          8          0         16       9499   ip_addr.o
      2600        486          0          6          0       7308   ip_frag.o
       912         56          0         16          0       3689   lan8720.o
     19584        174       6080          4         14      22226   lcd.o
       112          8          0          0          0        547   led.o
       104          6          0          0          0        743   lsens.o
      1888        696          0         32         76      20302   lwip_comm.o
       972        274         66         34        512     405698   main.o
       556         18         36         36    1218560       4800   malloc.o
      1860        568          0         20          0       4102   mem.o
       468        196        216         60         56       3104   memp.o
       224         20          0          0          0       1933   misc.o
       204         12        960          0          0       1625   mycc936.o
       944        340          0          0          0       3961   netbuf.o
       832        124          0          9          0       6361   netif.o
      2416        246        256         96       6824      16968   os_core.o
       200         32          0          0          0        316   os_cpu_a.o
       488          8          0          6          0      12166   os_cpu_c.o
      2060         42          0          0          0       6880   os_flag.o
       484         16          0          0          0       3104   os_mem.o
      1528         32          0          0          0       5521   os_q.o
       988         64          0          0          0       3886   os_sem.o
      1988         70          0          0          0       7537   os_task.o
       432         30          0          0          0       1794   os_time.o
      1648        134          0          0          0       5501   os_tmr.o
      1508         66        808          0          0       5865   ov2640.o
      4256       1236          0          0          0       9249   pbuf.o
       172         10          0          0          0        753   pwm.o
       588        134          0          4          0       3345   raw.o
       628         12          0          0          0       2015   sccb.o
      7520        282          0         16        704      24933   sdio_sdcard.o
      7188        668         64          8         96      17442   sockets.o
       280          8          0          0          0       1045   spi.o
       948         46          0          0          0       2271   sram.o
        64         26        392          0       1536        824   startup_stm32f40_41xxx.o
      3648         96          0         16         12      19710   stm32f4x7_eth.o
      1124         24          0          0          0      10606   stm32f4xx_adc.o
       396          4          0          0          0       3566   stm32f4xx_dcmi.o
       936         32          0          0          0       6413   stm32f4xx_dma.o
      1480         18         28          0          0       5742   stm32f4xx_fsmc.o
       660         44          0          0          0       4209   stm32f4xx_gpio.o
        20          0          0          0          0        935   stm32f4xx_it.o
      1628         52          0         16          0      13008   stm32f4xx_rcc.o
       476         16          0          0          0       7500   stm32f4xx_sdio.o
      1152         36          0          0          0       6961   stm32f4xx_spi.o
       148         12          0          0          0       1889   stm32f4xx_syscfg.o
      3234         60          0          0          0      22412   stm32f4xx_tim.o
      1108         34          0          0          0       7912   stm32f4xx_usart.o
        16          0          0          0          0        480   sys.o
       980        166          4          0          0       6286   sys_arch.o
       528         46          0         20          0       1747   system_stm32f4xx.o
      5260       1092        189         36          0      21639   tcp.o
      5340       1012          0         44        120       6195   tcp_client.o
      6264        964          0         32         20      15035   tcp_in.o
      4934        954         85          0          0       9691   tcp_out.o
      1056        414          0         42          0       2758   tcp_server.o
       952        194          0         12          0       9668   tcpip.o
       724         16          0          0          0       2964   text.o
       496         24          0          8         10       1777   timer.o
       816        186          0          8          0       3507   timers.o
      1512        202          0          8          0      14165   udp.o
       348         18          0          6        200       3318   usart.o
      3132       1290         40         28          0       4246   usmart.o
         0          0        263        292          0       1548   usmart_config.o
      1320         12          0          0          0       5145   usmart_str.o
       904         34          0          2       4096       4301   w25qxx.o

    ----------------------------------------------------------------------
    161672      18970       9994       1060    1233340     999543   Object Totals
         0          0         32          0          0          0   (incl. Generated)
         8          0          9         20         27          0   (incl. Padding)

    ----------------------------------------------------------------------

      Code (inc. data)   RO Data    RW Data    ZI Data      Debug   Library Member Name

        90          0          0          0          0          0   __dczerorl2.o
         8          0          0          0          0         68   __main.o
       392          4         17          0          0         92   __printf_flags_ss_wp.o
        14          0          0          0          0         68   __printf_wp.o
         0          0          0          0          0          0   __rtentry.o
        12          0          0          0          0          0   __rtentry2.o
         6          0          0          0          0          0   __rtentry4.o
        52          8          0          0          0          0   __scatter.o
        28          0          0          0          0          0   __scatter_zi.o
         6          0          0          0          0          0   _printf_c.o
        44          0          0          0          0        108   _printf_char.o
        48          6          0          0          0         96   _printf_char_common.o
        36          4          0          0          0         80   _printf_char_file.o
         6          0          0          0          0          0   _printf_d.o
       120         16          0          0          0         92   _printf_dec.o
        88          4         40          0          0         88   _printf_hex_int.o
       178          0          0          0          0         88   _printf_intcommon.o
        78          0          0          0          0        108   _printf_pad.o
         0          0          0          0          0          0   _printf_percent.o
         4          0          0          0          0          0   _printf_percent_end.o
         6          0          0          0          0          0   _printf_s.o
        82          0          0          0          0         80   _printf_str.o
         6          0          0          0          0          0   _printf_u.o
         6          0          0          0          0          0   _printf_x.o
        10          0          0          0          0         68   _sputc.o
        12          0          0          0          0         72   exit.o
         8          0          0          0          0         68   ferror.o
         6          0          0          0          0        152   heapauxi.o
        44         10        272          0          0         76   lc_ctype_c.o
         2          0          0          0          0          0   libinit.o
        24          0          0          0          0          0   libinit2.o
         2          0          0          0          0          0   libshutdown.o
         2          0          0          0          0          0   libshutdown2.o
         8          4          0          0         96         68   libspace.o
        72          0          0          0          0         76   llsdiv.o
       238          0          0          0          0        100   lludivv7m.o
        88          0          0          0          0         76   memcmp.o
        24          4          0          0          0         84   noretval__2printf.o
        40          6          0          0          0         84   noretval__2sprintf.o
        16          4          0          0          0         76   rt_ctype_table.o
         8          4          0          0          0         68   rt_locale_intlibspace.o
        68          0          0          0          0         68   rt_memclr.o
        78          0          0          0          0         80   rt_memclr_w.o
       138          0          0          0          0         68   rt_memcpy_v6.o
       100          0          0          0          0         80   rt_memcpy_w.o
         2          0          0          0          0          0   rtexit.o
        10          0          0          0          0          0   rtexit2.o
       128          0          0          0          0         68   strcmpv7m.o
        72          0          0          0          0         80   strcpy.o
        62          0          0          0          0         76   strlen.o
        74          0          0          0          0         80   sys_stackheap_outer.o
         2          0          0          0          0         68   use_no_semi.o
         2          0          0          0          0         68   use_no_semi_2.o
        90          4          0          0          0        140   dfixu.o
        38          0          0          0          0        116   dflt_clz.o
       340         12          0          0          0        152   dmul.o
       156          4          0          0          0        140   dnaninf.o
        12          0          0          0          0        116   dretinf.o
        10          0          0          0          0        116   fpinit.o
         0          0          0          0          0          0   usenofp.o

    ----------------------------------------------------------------------
      3306         94        332          0         96       3552   Library Totals
        10          0          3          0          0          0   (incl. Padding)

    ----------------------------------------------------------------------

      Code (inc. data)   RO Data    RW Data    ZI Data      Debug   Library Name

      2650         74        329          0         96       2772   c_w.l
       646         20          0          0          0        780   fz_wm.l

    ----------------------------------------------------------------------
      3306         94        332          0         96       3552   Library Totals

    ----------------------------------------------------------------------

==============================================================================


      Code (inc. data)   RO Data    RW Data    ZI Data      Debug   

    164978      19064      10326       1060    1233436     983935   Grand Totals
    164978      19064      10326        232    1233436     983935   ELF Image Totals (compressed)
    164978      19064      10326        232          0          0   ROM Totals

==============================================================================

    Total RO  Size (Code + RO Data)               175304 ( 171.20kB)
    Total RW  Size (RW Data + ZI Data)           1234496 (1205.56kB)
    Total ROM Size (Code + RO Data + RW Data)     175536 ( 171.42kB)

==============================================================================

